
Lab3.elf:     file format elf32-avr

Sections:
Idx Name          Size      VMA       LMA       File off  Algn
  0 .data         0000005c  00800100  00002a1e  00002ab2  2**0
                  CONTENTS, ALLOC, LOAD, DATA
  1 .text         00002a1e  00000000  00000000  00000094  2**1
                  CONTENTS, ALLOC, LOAD, READONLY, CODE
  2 .bss          00000113  0080015c  0080015c  00002b0e  2**0
                  ALLOC

Disassembly of section .text:

00000000 <__vectors>:
       0:	0c 94 17 01 	jmp	0x22e	; 0x22e <__ctors_end>
       4:	0c 94 34 01 	jmp	0x268	; 0x268 <__bad_interrupt>
       8:	0c 94 34 01 	jmp	0x268	; 0x268 <__bad_interrupt>
       c:	0c 94 34 01 	jmp	0x268	; 0x268 <__bad_interrupt>
      10:	0c 94 34 01 	jmp	0x268	; 0x268 <__bad_interrupt>
      14:	0c 94 34 01 	jmp	0x268	; 0x268 <__bad_interrupt>
      18:	0c 94 34 01 	jmp	0x268	; 0x268 <__bad_interrupt>
      1c:	0c 94 34 01 	jmp	0x268	; 0x268 <__bad_interrupt>
      20:	0c 94 34 01 	jmp	0x268	; 0x268 <__bad_interrupt>
      24:	0c 94 34 01 	jmp	0x268	; 0x268 <__bad_interrupt>
      28:	0c 94 34 01 	jmp	0x268	; 0x268 <__bad_interrupt>
      2c:	0c 94 34 01 	jmp	0x268	; 0x268 <__bad_interrupt>
      30:	0c 94 34 01 	jmp	0x268	; 0x268 <__bad_interrupt>
      34:	0c 94 34 01 	jmp	0x268	; 0x268 <__bad_interrupt>
      38:	0c 94 34 01 	jmp	0x268	; 0x268 <__bad_interrupt>
      3c:	0c 94 34 01 	jmp	0x268	; 0x268 <__bad_interrupt>
      40:	0c 94 0c 09 	jmp	0x1218	; 0x1218 <__vector_16>
      44:	0c 94 34 01 	jmp	0x268	; 0x268 <__bad_interrupt>
      48:	0c 94 34 01 	jmp	0x268	; 0x268 <__bad_interrupt>
      4c:	0c 94 34 01 	jmp	0x268	; 0x268 <__bad_interrupt>
      50:	0c 94 34 01 	jmp	0x268	; 0x268 <__bad_interrupt>
      54:	0c 94 34 01 	jmp	0x268	; 0x268 <__bad_interrupt>
      58:	0c 94 34 01 	jmp	0x268	; 0x268 <__bad_interrupt>
      5c:	0c 94 34 01 	jmp	0x268	; 0x268 <__bad_interrupt>
      60:	0c 94 34 01 	jmp	0x268	; 0x268 <__bad_interrupt>
      64:	0c 94 34 01 	jmp	0x268	; 0x268 <__bad_interrupt>
      68:	0c 94 34 01 	jmp	0x268	; 0x268 <__bad_interrupt>
      6c:	0c 94 34 01 	jmp	0x268	; 0x268 <__bad_interrupt>
      70:	0c 94 34 01 	jmp	0x268	; 0x268 <__bad_interrupt>
      74:	0c 94 34 01 	jmp	0x268	; 0x268 <__bad_interrupt>
      78:	0c 94 34 01 	jmp	0x268	; 0x268 <__bad_interrupt>
      7c:	08 4a       	sbci	r16, 0xA8	; 168
      7e:	d7 3b       	cpi	r29, 0xB7	; 183
      80:	3b ce       	rjmp	.-906    	; 0xfffffcf8 <__eeprom_end+0xff7efcf8>
      82:	01 6e       	ori	r16, 0xE1	; 225
      84:	84 bc       	out	0x24, r8	; 36
      86:	bf fd       	.word	0xfdbf	; ????
      88:	c1 2f       	mov	r28, r17
      8a:	3d 6c       	ori	r19, 0xCD	; 205
      8c:	74 31       	cpi	r23, 0x14	; 20
      8e:	9a bd       	out	0x2a, r25	; 42
      90:	56 83       	std	Z+6, r21	; 0x06
      92:	3d da       	rcall	.-2950   	; 0xfffff50e <__eeprom_end+0xff7ef50e>
      94:	3d 00       	.word	0x003d	; ????
      96:	c7 7f       	andi	r28, 0xF7	; 247
      98:	11 be       	out	0x31, r1	; 49
      9a:	d9 e4       	ldi	r29, 0x49	; 73
      9c:	bb 4c       	sbci	r27, 0xCB	; 203
      9e:	3e 91       	ld	r19, -X
      a0:	6b aa       	std	Y+51, r6	; 0x33
      a2:	aa be       	out	0x3a, r10	; 58
      a4:	00 00       	nop
      a6:	00 80       	ld	r0, Z
      a8:	3f 07       	cpc	r19, r31
      aa:	63 42       	sbci	r22, 0x23	; 35
      ac:	36 b7       	in	r19, 0x36	; 54
      ae:	9b d8       	rcall	.-3786   	; 0xfffff1e6 <__eeprom_end+0xff7ef1e6>
      b0:	a7 1a       	sub	r10, r23
      b2:	39 68       	ori	r19, 0x89	; 137
      b4:	56 18       	sub	r5, r6
      b6:	ae ba       	out	0x1e, r10	; 30
      b8:	ab 55       	subi	r26, 0x5B	; 91
      ba:	8c 1d       	adc	r24, r12
      bc:	3c b7       	in	r19, 0x3c	; 60
      be:	cc 57       	subi	r28, 0x7C	; 124
      c0:	63 bd       	out	0x23, r22	; 35
      c2:	6d ed       	ldi	r22, 0xDD	; 221
      c4:	fd 75       	andi	r31, 0x5D	; 93
      c6:	3e f6       	brtc	.-114    	; 0x56 <__SREG__+0x17>
      c8:	17 72       	andi	r17, 0x27	; 39
      ca:	31 bf       	out	0x31, r19	; 49
      cc:	00 00       	nop
      ce:	00 80       	ld	r0, Z
      d0:	3f 08       	sbc	r3, r15
      d2:	00 00       	nop
      d4:	00 be       	out	0x30, r0	; 48
      d6:	92 24       	eor	r9, r2
      d8:	49 12       	cpse	r4, r25
      da:	3e ab       	std	Y+54, r19	; 0x36
      dc:	aa aa       	std	Y+50, r10	; 0x32
      de:	2a be       	out	0x3a, r2	; 58
      e0:	cd cc       	rjmp	.-1638   	; 0xfffffa7c <__eeprom_end+0xff7efa7c>
      e2:	cc 4c       	sbci	r28, 0xCC	; 204
      e4:	3e 00       	.word	0x003e	; ????
      e6:	00 00       	nop
      e8:	80 be       	out	0x30, r8	; 48
      ea:	ab aa       	std	Y+51, r10	; 0x33
      ec:	aa aa       	std	Y+50, r10	; 0x32
      ee:	3e 00       	.word	0x003e	; ????
      f0:	00 00       	nop
      f2:	00 bf       	out	0x30, r16	; 48
      f4:	00 00       	nop
      f6:	00 80       	ld	r0, Z
      f8:	3f 00       	.word	0x003f	; ????
      fa:	00 00       	nop
      fc:	00 00       	nop
      fe:	08 41       	sbci	r16, 0x18	; 24
     100:	78 d3       	rcall	.+1776   	; 0x7f2 <vfprintf+0x586>
     102:	bb 43       	sbci	r27, 0x3B	; 59
     104:	87 d1       	rcall	.+782    	; 0x414 <vfprintf+0x1a8>
     106:	13 3d       	cpi	r17, 0xD3	; 211
     108:	19 0e       	add	r1, r25
     10a:	3c c3       	rjmp	.+1656   	; 0x784 <vfprintf+0x518>
     10c:	bd 42       	sbci	r27, 0x2D	; 45
     10e:	82 ad       	ldd	r24, Z+58	; 0x3a
     110:	2b 3e       	cpi	r18, 0xEB	; 235
     112:	68 ec       	ldi	r22, 0xC8	; 200
     114:	82 76       	andi	r24, 0x62	; 98
     116:	be d9       	rcall	.-3204   	; 0xfffff494 <__eeprom_end+0xff7ef494>
     118:	8f e1       	ldi	r24, 0x1F	; 31
     11a:	a9 3e       	cpi	r26, 0xE9	; 233
     11c:	4c 80       	ldd	r4, Y+4	; 0x04
     11e:	ef ff       	.word	0xffef	; ????
     120:	be 01       	movw	r22, r28
     122:	c4 ff       	sbrs	r28, 4
     124:	7f 3f       	cpi	r23, 0xFF	; 255
     126:	00 00       	nop
     128:	00 00       	nop
	...

0000012b <__c.1790>:
     12b:	6e 61 6e 00                                         nan.

0000012f <__c.1788>:
     12f:	69 6e 66 00 00 40 7a 10 f3 5a 00 a0 72 4e 18 09     inf..@z..Z..rN..
     13f:	00 10 a5 d4 e8 00 00 e8 76 48 17 00 00 e4 0b 54     ........vH.....T
     14f:	02 00 00 ca 9a 3b 00 00 00 e1 f5 05 00 00 80 96     .....;..........
     15f:	98 00 00 00 40 42 0f 00 00 00 a0 86 01 00 00 00     ....@B..........
     16f:	10 27 00 00 00 00 e8 03 00 00 00 00 64 00 00 00     .'..........d...
     17f:	00 00 0a 00 00 00 00 00 01 00 00 00 00 00 2c 76     ..............,v
     18f:	d8 88 dc 67 4f 08 23 df c1 df ae 59 e1 b1 b7 96     ...gO.#....Y....
     19f:	e5 e3 e4 53 c6 3a e6 51 99 76 96 e8 e6 c2 84 26     ...S.:.Q.v.....&
     1af:	eb 89 8c 9b 62 ed 40 7c 6f fc ef bc 9c 9f 40 f2     ....b.@|o.....@.
     1bf:	ba a5 6f a5 f4 90 05 5a 2a f7 5c 93 6b 6c f9 67     ..o....Z*.\.kl.g
     1cf:	6d c1 1b fc e0 e4 0d 47 fe f5 20 e6 b5 00 d0 ed     m......G.. .....
     1df:	90 2e 03 00 94 35 77 05 00 80 84 1e 08 00 00 20     .....5w........ 
     1ef:	4e 0a 00 00 00 c8 0c 33 33 33 33 0f 98 6e 12 83     N......3333..n..
     1ff:	11 41 ef 8d 21 14 89 3b e6 55 16 cf fe e6 db 18     .A..!..;.U......
     20f:	d1 84 4b 38 1b f7 7c 1d 90 1d a4 bb e4 24 20 32     ..K8..|......$ 2
     21f:	84 72 5e 22 81 00 c9 f1 24 ec a1 e5 3d 27 00        .r^"....$...='.

0000022e <__ctors_end>:
     22e:	11 24       	eor	r1, r1
     230:	1f be       	out	0x3f, r1	; 63
     232:	cf ef       	ldi	r28, 0xFF	; 255
     234:	d0 e1       	ldi	r29, 0x10	; 16
     236:	de bf       	out	0x3e, r29	; 62
     238:	cd bf       	out	0x3d, r28	; 61

0000023a <__do_copy_data>:
     23a:	11 e0       	ldi	r17, 0x01	; 1
     23c:	a0 e0       	ldi	r26, 0x00	; 0
     23e:	b1 e0       	ldi	r27, 0x01	; 1
     240:	ee e1       	ldi	r30, 0x1E	; 30
     242:	fa e2       	ldi	r31, 0x2A	; 42
     244:	02 c0       	rjmp	.+4      	; 0x24a <.do_copy_data_start>

00000246 <.do_copy_data_loop>:
     246:	05 90       	lpm	r0, Z+
     248:	0d 92       	st	X+, r0

0000024a <.do_copy_data_start>:
     24a:	ac 35       	cpi	r26, 0x5C	; 92
     24c:	b1 07       	cpc	r27, r17
     24e:	d9 f7       	brne	.-10     	; 0x246 <.do_copy_data_loop>

00000250 <__do_clear_bss>:
     250:	12 e0       	ldi	r17, 0x02	; 2
     252:	ac e5       	ldi	r26, 0x5C	; 92
     254:	b1 e0       	ldi	r27, 0x01	; 1
     256:	01 c0       	rjmp	.+2      	; 0x25a <.do_clear_bss_start>

00000258 <.do_clear_bss_loop>:
     258:	1d 92       	st	X+, r1

0000025a <.do_clear_bss_start>:
     25a:	af 36       	cpi	r26, 0x6F	; 111
     25c:	b1 07       	cpc	r27, r17
     25e:	e1 f7       	brne	.-8      	; 0x258 <.do_clear_bss_loop>
     260:	0e 94 c9 09 	call	0x1392	; 0x1392 <main>
     264:	0c 94 0d 15 	jmp	0x2a1a	; 0x2a1a <_exit>

00000268 <__bad_interrupt>:
     268:	0c 94 00 00 	jmp	0	; 0x0 <__vectors>

0000026c <vfprintf>:
     26c:	a1 e1       	ldi	r26, 0x11	; 17
     26e:	b0 e0       	ldi	r27, 0x00	; 0
     270:	ec e3       	ldi	r30, 0x3C	; 60
     272:	f1 e0       	ldi	r31, 0x01	; 1
     274:	0c 94 11 13 	jmp	0x2622	; 0x2622 <__prologue_saves__>
     278:	3c 01       	movw	r6, r24
     27a:	7f 87       	std	Y+15, r23	; 0x0f
     27c:	6e 87       	std	Y+14, r22	; 0x0e
     27e:	6a 01       	movw	r12, r20
     280:	fc 01       	movw	r30, r24
     282:	17 82       	std	Z+7, r1	; 0x07
     284:	16 82       	std	Z+6, r1	; 0x06
     286:	83 81       	ldd	r24, Z+3	; 0x03
     288:	81 fd       	sbrc	r24, 1
     28a:	03 c0       	rjmp	.+6      	; 0x292 <vfprintf+0x26>
     28c:	6f ef       	ldi	r22, 0xFF	; 255
     28e:	7f ef       	ldi	r23, 0xFF	; 255
     290:	6f c3       	rjmp	.+1758   	; 0x970 <vfprintf+0x704>
     292:	9e 01       	movw	r18, r28
     294:	2f 5f       	subi	r18, 0xFF	; 255
     296:	3f 4f       	sbci	r19, 0xFF	; 255
     298:	39 8b       	std	Y+17, r19	; 0x11
     29a:	28 8b       	std	Y+16, r18	; 0x10
     29c:	f3 01       	movw	r30, r6
     29e:	23 81       	ldd	r18, Z+3	; 0x03
     2a0:	ee 85       	ldd	r30, Y+14	; 0x0e
     2a2:	ff 85       	ldd	r31, Y+15	; 0x0f
     2a4:	23 fd       	sbrc	r18, 3
     2a6:	85 91       	lpm	r24, Z+
     2a8:	23 ff       	sbrs	r18, 3
     2aa:	81 91       	ld	r24, Z+
     2ac:	ff 87       	std	Y+15, r31	; 0x0f
     2ae:	ee 87       	std	Y+14, r30	; 0x0e
     2b0:	88 23       	and	r24, r24
     2b2:	09 f4       	brne	.+2      	; 0x2b6 <vfprintf+0x4a>
     2b4:	5a c3       	rjmp	.+1716   	; 0x96a <vfprintf+0x6fe>
     2b6:	85 32       	cpi	r24, 0x25	; 37
     2b8:	51 f4       	brne	.+20     	; 0x2ce <vfprintf+0x62>
     2ba:	ee 85       	ldd	r30, Y+14	; 0x0e
     2bc:	ff 85       	ldd	r31, Y+15	; 0x0f
     2be:	23 fd       	sbrc	r18, 3
     2c0:	85 91       	lpm	r24, Z+
     2c2:	23 ff       	sbrs	r18, 3
     2c4:	81 91       	ld	r24, Z+
     2c6:	ff 87       	std	Y+15, r31	; 0x0f
     2c8:	ee 87       	std	Y+14, r30	; 0x0e
     2ca:	85 32       	cpi	r24, 0x25	; 37
     2cc:	29 f4       	brne	.+10     	; 0x2d8 <vfprintf+0x6c>
     2ce:	90 e0       	ldi	r25, 0x00	; 0
     2d0:	b3 01       	movw	r22, r6
     2d2:	0e 94 4a 14 	call	0x2894	; 0x2894 <fputc>
     2d6:	e2 cf       	rjmp	.-60     	; 0x29c <vfprintf+0x30>
     2d8:	98 2f       	mov	r25, r24
     2da:	10 e0       	ldi	r17, 0x00	; 0
     2dc:	88 24       	eor	r8, r8
     2de:	99 24       	eor	r9, r9
     2e0:	10 32       	cpi	r17, 0x20	; 32
     2e2:	b0 f4       	brcc	.+44     	; 0x310 <vfprintf+0xa4>
     2e4:	9b 32       	cpi	r25, 0x2B	; 43
     2e6:	69 f0       	breq	.+26     	; 0x302 <vfprintf+0x96>
     2e8:	9c 32       	cpi	r25, 0x2C	; 44
     2ea:	28 f4       	brcc	.+10     	; 0x2f6 <vfprintf+0x8a>
     2ec:	90 32       	cpi	r25, 0x20	; 32
     2ee:	51 f0       	breq	.+20     	; 0x304 <vfprintf+0x98>
     2f0:	93 32       	cpi	r25, 0x23	; 35
     2f2:	71 f4       	brne	.+28     	; 0x310 <vfprintf+0xa4>
     2f4:	0b c0       	rjmp	.+22     	; 0x30c <vfprintf+0xa0>
     2f6:	9d 32       	cpi	r25, 0x2D	; 45
     2f8:	39 f0       	breq	.+14     	; 0x308 <vfprintf+0x9c>
     2fa:	90 33       	cpi	r25, 0x30	; 48
     2fc:	49 f4       	brne	.+18     	; 0x310 <vfprintf+0xa4>
     2fe:	11 60       	ori	r17, 0x01	; 1
     300:	28 c0       	rjmp	.+80     	; 0x352 <vfprintf+0xe6>
     302:	12 60       	ori	r17, 0x02	; 2
     304:	14 60       	ori	r17, 0x04	; 4
     306:	25 c0       	rjmp	.+74     	; 0x352 <vfprintf+0xe6>
     308:	18 60       	ori	r17, 0x08	; 8
     30a:	23 c0       	rjmp	.+70     	; 0x352 <vfprintf+0xe6>
     30c:	10 61       	ori	r17, 0x10	; 16
     30e:	21 c0       	rjmp	.+66     	; 0x352 <vfprintf+0xe6>
     310:	17 fd       	sbrc	r17, 7
     312:	2a c0       	rjmp	.+84     	; 0x368 <vfprintf+0xfc>
     314:	89 2f       	mov	r24, r25
     316:	80 53       	subi	r24, 0x30	; 48
     318:	8a 30       	cpi	r24, 0x0A	; 10
     31a:	78 f4       	brcc	.+30     	; 0x33a <vfprintf+0xce>
     31c:	16 ff       	sbrs	r17, 6
     31e:	06 c0       	rjmp	.+12     	; 0x32c <vfprintf+0xc0>
     320:	fa e0       	ldi	r31, 0x0A	; 10
     322:	9f 9e       	mul	r9, r31
     324:	90 2c       	mov	r9, r0
     326:	11 24       	eor	r1, r1
     328:	98 0e       	add	r9, r24
     32a:	13 c0       	rjmp	.+38     	; 0x352 <vfprintf+0xe6>
     32c:	3a e0       	ldi	r19, 0x0A	; 10
     32e:	83 9e       	mul	r8, r19
     330:	80 2c       	mov	r8, r0
     332:	11 24       	eor	r1, r1
     334:	88 0e       	add	r8, r24
     336:	10 62       	ori	r17, 0x20	; 32
     338:	0c c0       	rjmp	.+24     	; 0x352 <vfprintf+0xe6>
     33a:	9e 32       	cpi	r25, 0x2E	; 46
     33c:	21 f4       	brne	.+8      	; 0x346 <vfprintf+0xda>
     33e:	16 fd       	sbrc	r17, 6
     340:	14 c3       	rjmp	.+1576   	; 0x96a <vfprintf+0x6fe>
     342:	10 64       	ori	r17, 0x40	; 64
     344:	06 c0       	rjmp	.+12     	; 0x352 <vfprintf+0xe6>
     346:	9c 36       	cpi	r25, 0x6C	; 108
     348:	11 f4       	brne	.+4      	; 0x34e <vfprintf+0xe2>
     34a:	10 68       	ori	r17, 0x80	; 128
     34c:	02 c0       	rjmp	.+4      	; 0x352 <vfprintf+0xe6>
     34e:	98 36       	cpi	r25, 0x68	; 104
     350:	59 f4       	brne	.+22     	; 0x368 <vfprintf+0xfc>
     352:	ee 85       	ldd	r30, Y+14	; 0x0e
     354:	ff 85       	ldd	r31, Y+15	; 0x0f
     356:	23 fd       	sbrc	r18, 3
     358:	95 91       	lpm	r25, Z+
     35a:	23 ff       	sbrs	r18, 3
     35c:	91 91       	ld	r25, Z+
     35e:	ff 87       	std	Y+15, r31	; 0x0f
     360:	ee 87       	std	Y+14, r30	; 0x0e
     362:	99 23       	and	r25, r25
     364:	09 f0       	breq	.+2      	; 0x368 <vfprintf+0xfc>
     366:	bc cf       	rjmp	.-136    	; 0x2e0 <vfprintf+0x74>
     368:	89 2f       	mov	r24, r25
     36a:	85 54       	subi	r24, 0x45	; 69
     36c:	83 30       	cpi	r24, 0x03	; 3
     36e:	20 f4       	brcc	.+8      	; 0x378 <vfprintf+0x10c>
     370:	81 2f       	mov	r24, r17
     372:	80 61       	ori	r24, 0x10	; 16
     374:	90 5e       	subi	r25, 0xE0	; 224
     376:	07 c0       	rjmp	.+14     	; 0x386 <vfprintf+0x11a>
     378:	89 2f       	mov	r24, r25
     37a:	85 56       	subi	r24, 0x65	; 101
     37c:	83 30       	cpi	r24, 0x03	; 3
     37e:	08 f0       	brcs	.+2      	; 0x382 <vfprintf+0x116>
     380:	9f c1       	rjmp	.+830    	; 0x6c0 <vfprintf+0x454>
     382:	81 2f       	mov	r24, r17
     384:	8f 7e       	andi	r24, 0xEF	; 239
     386:	86 fd       	sbrc	r24, 6
     388:	02 c0       	rjmp	.+4      	; 0x38e <vfprintf+0x122>
     38a:	76 e0       	ldi	r23, 0x06	; 6
     38c:	97 2e       	mov	r9, r23
     38e:	6f e3       	ldi	r22, 0x3F	; 63
     390:	f6 2e       	mov	r15, r22
     392:	f8 22       	and	r15, r24
     394:	95 36       	cpi	r25, 0x65	; 101
     396:	19 f4       	brne	.+6      	; 0x39e <vfprintf+0x132>
     398:	f0 e4       	ldi	r31, 0x40	; 64
     39a:	ff 2a       	or	r15, r31
     39c:	07 c0       	rjmp	.+14     	; 0x3ac <vfprintf+0x140>
     39e:	96 36       	cpi	r25, 0x66	; 102
     3a0:	19 f4       	brne	.+6      	; 0x3a8 <vfprintf+0x13c>
     3a2:	20 e8       	ldi	r18, 0x80	; 128
     3a4:	f2 2a       	or	r15, r18
     3a6:	02 c0       	rjmp	.+4      	; 0x3ac <vfprintf+0x140>
     3a8:	91 10       	cpse	r9, r1
     3aa:	9a 94       	dec	r9
     3ac:	f7 fe       	sbrs	r15, 7
     3ae:	0a c0       	rjmp	.+20     	; 0x3c4 <vfprintf+0x158>
     3b0:	3b e3       	ldi	r19, 0x3B	; 59
     3b2:	39 15       	cp	r19, r9
     3b4:	18 f4       	brcc	.+6      	; 0x3bc <vfprintf+0x150>
     3b6:	5c e3       	ldi	r21, 0x3C	; 60
     3b8:	b5 2e       	mov	r11, r21
     3ba:	02 c0       	rjmp	.+4      	; 0x3c0 <vfprintf+0x154>
     3bc:	b9 2c       	mov	r11, r9
     3be:	b3 94       	inc	r11
     3c0:	27 e0       	ldi	r18, 0x07	; 7
     3c2:	09 c0       	rjmp	.+18     	; 0x3d6 <vfprintf+0x16a>
     3c4:	47 e0       	ldi	r20, 0x07	; 7
     3c6:	49 15       	cp	r20, r9
     3c8:	20 f4       	brcc	.+8      	; 0x3d2 <vfprintf+0x166>
     3ca:	bb 24       	eor	r11, r11
     3cc:	47 e0       	ldi	r20, 0x07	; 7
     3ce:	94 2e       	mov	r9, r20
     3d0:	f7 cf       	rjmp	.-18     	; 0x3c0 <vfprintf+0x154>
     3d2:	29 2d       	mov	r18, r9
     3d4:	bb 24       	eor	r11, r11
     3d6:	c6 01       	movw	r24, r12
     3d8:	04 96       	adiw	r24, 0x04	; 4
     3da:	9d 87       	std	Y+13, r25	; 0x0d
     3dc:	8c 87       	std	Y+12, r24	; 0x0c
     3de:	f6 01       	movw	r30, r12
     3e0:	60 81       	ld	r22, Z
     3e2:	71 81       	ldd	r23, Z+1	; 0x01
     3e4:	82 81       	ldd	r24, Z+2	; 0x02
     3e6:	93 81       	ldd	r25, Z+3	; 0x03
     3e8:	ae 01       	movw	r20, r28
     3ea:	4f 5f       	subi	r20, 0xFF	; 255
     3ec:	5f 4f       	sbci	r21, 0xFF	; 255
     3ee:	0b 2d       	mov	r16, r11
     3f0:	0e 94 5c 13 	call	0x26b8	; 0x26b8 <__ftoa_engine>
     3f4:	6c 01       	movw	r12, r24
     3f6:	09 81       	ldd	r16, Y+1	; 0x01
     3f8:	20 2e       	mov	r2, r16
     3fa:	33 24       	eor	r3, r3
     3fc:	00 ff       	sbrs	r16, 0
     3fe:	04 c0       	rjmp	.+8      	; 0x408 <vfprintf+0x19c>
     400:	03 fd       	sbrc	r16, 3
     402:	02 c0       	rjmp	.+4      	; 0x408 <vfprintf+0x19c>
     404:	1d e2       	ldi	r17, 0x2D	; 45
     406:	09 c0       	rjmp	.+18     	; 0x41a <vfprintf+0x1ae>
     408:	f1 fe       	sbrs	r15, 1
     40a:	02 c0       	rjmp	.+4      	; 0x410 <vfprintf+0x1a4>
     40c:	1b e2       	ldi	r17, 0x2B	; 43
     40e:	05 c0       	rjmp	.+10     	; 0x41a <vfprintf+0x1ae>
     410:	f2 fc       	sbrc	r15, 2
     412:	02 c0       	rjmp	.+4      	; 0x418 <vfprintf+0x1ac>
     414:	10 e0       	ldi	r17, 0x00	; 0
     416:	01 c0       	rjmp	.+2      	; 0x41a <vfprintf+0x1ae>
     418:	10 e2       	ldi	r17, 0x20	; 32
     41a:	c1 01       	movw	r24, r2
     41c:	8c 70       	andi	r24, 0x0C	; 12
     41e:	90 70       	andi	r25, 0x00	; 0
     420:	89 2b       	or	r24, r25
     422:	b9 f1       	breq	.+110    	; 0x492 <vfprintf+0x226>
     424:	11 23       	and	r17, r17
     426:	11 f4       	brne	.+4      	; 0x42c <vfprintf+0x1c0>
     428:	83 e0       	ldi	r24, 0x03	; 3
     42a:	01 c0       	rjmp	.+2      	; 0x42e <vfprintf+0x1c2>
     42c:	84 e0       	ldi	r24, 0x04	; 4
     42e:	88 15       	cp	r24, r8
     430:	10 f0       	brcs	.+4      	; 0x436 <vfprintf+0x1ca>
     432:	88 24       	eor	r8, r8
     434:	0a c0       	rjmp	.+20     	; 0x44a <vfprintf+0x1de>
     436:	88 1a       	sub	r8, r24
     438:	f3 fc       	sbrc	r15, 3
     43a:	07 c0       	rjmp	.+14     	; 0x44a <vfprintf+0x1de>
     43c:	80 e2       	ldi	r24, 0x20	; 32
     43e:	90 e0       	ldi	r25, 0x00	; 0
     440:	b3 01       	movw	r22, r6
     442:	0e 94 4a 14 	call	0x2894	; 0x2894 <fputc>
     446:	8a 94       	dec	r8
     448:	c9 f7       	brne	.-14     	; 0x43c <vfprintf+0x1d0>
     44a:	11 23       	and	r17, r17
     44c:	29 f0       	breq	.+10     	; 0x458 <vfprintf+0x1ec>
     44e:	81 2f       	mov	r24, r17
     450:	90 e0       	ldi	r25, 0x00	; 0
     452:	b3 01       	movw	r22, r6
     454:	0e 94 4a 14 	call	0x2894	; 0x2894 <fputc>
     458:	23 fe       	sbrs	r2, 3
     45a:	03 c0       	rjmp	.+6      	; 0x462 <vfprintf+0x1f6>
     45c:	0b e2       	ldi	r16, 0x2B	; 43
     45e:	11 e0       	ldi	r17, 0x01	; 1
     460:	0e c0       	rjmp	.+28     	; 0x47e <vfprintf+0x212>
     462:	0f e2       	ldi	r16, 0x2F	; 47
     464:	11 e0       	ldi	r17, 0x01	; 1
     466:	0b c0       	rjmp	.+22     	; 0x47e <vfprintf+0x212>
     468:	e1 14       	cp	r14, r1
     46a:	f1 04       	cpc	r15, r1
     46c:	09 f0       	breq	.+2      	; 0x470 <vfprintf+0x204>
     46e:	80 52       	subi	r24, 0x20	; 32
     470:	90 e0       	ldi	r25, 0x00	; 0
     472:	b3 01       	movw	r22, r6
     474:	0e 94 4a 14 	call	0x2894	; 0x2894 <fputc>
     478:	0f 5f       	subi	r16, 0xFF	; 255
     47a:	1f 4f       	sbci	r17, 0xFF	; 255
     47c:	05 c0       	rjmp	.+10     	; 0x488 <vfprintf+0x21c>
     47e:	ef 2c       	mov	r14, r15
     480:	ff 24       	eor	r15, r15
     482:	f0 e1       	ldi	r31, 0x10	; 16
     484:	ef 22       	and	r14, r31
     486:	ff 24       	eor	r15, r15
     488:	f8 01       	movw	r30, r16
     48a:	84 91       	lpm	r24, Z+
     48c:	88 23       	and	r24, r24
     48e:	61 f7       	brne	.-40     	; 0x468 <vfprintf+0x1fc>
     490:	14 c1       	rjmp	.+552    	; 0x6ba <vfprintf+0x44e>
     492:	f7 fe       	sbrs	r15, 7
     494:	12 c0       	rjmp	.+36     	; 0x4ba <vfprintf+0x24e>
     496:	bc 0c       	add	r11, r12
     498:	24 fe       	sbrs	r2, 4
     49a:	04 c0       	rjmp	.+8      	; 0x4a4 <vfprintf+0x238>
     49c:	8a 81       	ldd	r24, Y+2	; 0x02
     49e:	81 33       	cpi	r24, 0x31	; 49
     4a0:	09 f4       	brne	.+2      	; 0x4a4 <vfprintf+0x238>
     4a2:	ba 94       	dec	r11
     4a4:	1b 14       	cp	r1, r11
     4a6:	1c f0       	brlt	.+6      	; 0x4ae <vfprintf+0x242>
     4a8:	bb 24       	eor	r11, r11
     4aa:	b3 94       	inc	r11
     4ac:	2d c0       	rjmp	.+90     	; 0x508 <vfprintf+0x29c>
     4ae:	f8 e0       	ldi	r31, 0x08	; 8
     4b0:	fb 15       	cp	r31, r11
     4b2:	50 f5       	brcc	.+84     	; 0x508 <vfprintf+0x29c>
     4b4:	38 e0       	ldi	r19, 0x08	; 8
     4b6:	b3 2e       	mov	r11, r19
     4b8:	27 c0       	rjmp	.+78     	; 0x508 <vfprintf+0x29c>
     4ba:	f6 fc       	sbrc	r15, 6
     4bc:	25 c0       	rjmp	.+74     	; 0x508 <vfprintf+0x29c>
     4be:	89 2d       	mov	r24, r9
     4c0:	90 e0       	ldi	r25, 0x00	; 0
     4c2:	8c 15       	cp	r24, r12
     4c4:	9d 05       	cpc	r25, r13
     4c6:	4c f0       	brlt	.+18     	; 0x4da <vfprintf+0x26e>
     4c8:	2c ef       	ldi	r18, 0xFC	; 252
     4ca:	c2 16       	cp	r12, r18
     4cc:	2f ef       	ldi	r18, 0xFF	; 255
     4ce:	d2 06       	cpc	r13, r18
     4d0:	24 f0       	brlt	.+8      	; 0x4da <vfprintf+0x26e>
     4d2:	30 e8       	ldi	r19, 0x80	; 128
     4d4:	f3 2a       	or	r15, r19
     4d6:	01 c0       	rjmp	.+2      	; 0x4da <vfprintf+0x26e>
     4d8:	9a 94       	dec	r9
     4da:	99 20       	and	r9, r9
     4dc:	49 f0       	breq	.+18     	; 0x4f0 <vfprintf+0x284>
     4de:	e2 e0       	ldi	r30, 0x02	; 2
     4e0:	f0 e0       	ldi	r31, 0x00	; 0
     4e2:	ec 0f       	add	r30, r28
     4e4:	fd 1f       	adc	r31, r29
     4e6:	e9 0d       	add	r30, r9
     4e8:	f1 1d       	adc	r31, r1
     4ea:	80 81       	ld	r24, Z
     4ec:	80 33       	cpi	r24, 0x30	; 48
     4ee:	a1 f3       	breq	.-24     	; 0x4d8 <vfprintf+0x26c>
     4f0:	f7 fe       	sbrs	r15, 7
     4f2:	0a c0       	rjmp	.+20     	; 0x508 <vfprintf+0x29c>
     4f4:	b9 2c       	mov	r11, r9
     4f6:	b3 94       	inc	r11
     4f8:	89 2d       	mov	r24, r9
     4fa:	90 e0       	ldi	r25, 0x00	; 0
     4fc:	c8 16       	cp	r12, r24
     4fe:	d9 06       	cpc	r13, r25
     500:	14 f0       	brlt	.+4      	; 0x506 <vfprintf+0x29a>
     502:	99 24       	eor	r9, r9
     504:	01 c0       	rjmp	.+2      	; 0x508 <vfprintf+0x29c>
     506:	9c 18       	sub	r9, r12
     508:	f7 fc       	sbrc	r15, 7
     50a:	03 c0       	rjmp	.+6      	; 0x512 <vfprintf+0x2a6>
     50c:	25 e0       	ldi	r18, 0x05	; 5
     50e:	30 e0       	ldi	r19, 0x00	; 0
     510:	09 c0       	rjmp	.+18     	; 0x524 <vfprintf+0x2b8>
     512:	1c 14       	cp	r1, r12
     514:	1d 04       	cpc	r1, r13
     516:	1c f0       	brlt	.+6      	; 0x51e <vfprintf+0x2b2>
     518:	21 e0       	ldi	r18, 0x01	; 1
     51a:	30 e0       	ldi	r19, 0x00	; 0
     51c:	03 c0       	rjmp	.+6      	; 0x524 <vfprintf+0x2b8>
     51e:	96 01       	movw	r18, r12
     520:	2f 5f       	subi	r18, 0xFF	; 255
     522:	3f 4f       	sbci	r19, 0xFF	; 255
     524:	11 23       	and	r17, r17
     526:	11 f0       	breq	.+4      	; 0x52c <vfprintf+0x2c0>
     528:	2f 5f       	subi	r18, 0xFF	; 255
     52a:	3f 4f       	sbci	r19, 0xFF	; 255
     52c:	99 20       	and	r9, r9
     52e:	29 f0       	breq	.+10     	; 0x53a <vfprintf+0x2ce>
     530:	89 2d       	mov	r24, r9
     532:	90 e0       	ldi	r25, 0x00	; 0
     534:	01 96       	adiw	r24, 0x01	; 1
     536:	28 0f       	add	r18, r24
     538:	39 1f       	adc	r19, r25
     53a:	88 2d       	mov	r24, r8
     53c:	90 e0       	ldi	r25, 0x00	; 0
     53e:	28 17       	cp	r18, r24
     540:	39 07       	cpc	r19, r25
     542:	14 f0       	brlt	.+4      	; 0x548 <vfprintf+0x2dc>
     544:	88 24       	eor	r8, r8
     546:	01 c0       	rjmp	.+2      	; 0x54a <vfprintf+0x2de>
     548:	82 1a       	sub	r8, r18
     54a:	4f 2c       	mov	r4, r15
     54c:	55 24       	eor	r5, r5
     54e:	c2 01       	movw	r24, r4
     550:	89 70       	andi	r24, 0x09	; 9
     552:	90 70       	andi	r25, 0x00	; 0
     554:	89 2b       	or	r24, r25
     556:	39 f0       	breq	.+14     	; 0x566 <vfprintf+0x2fa>
     558:	08 c0       	rjmp	.+16     	; 0x56a <vfprintf+0x2fe>
     55a:	80 e2       	ldi	r24, 0x20	; 32
     55c:	90 e0       	ldi	r25, 0x00	; 0
     55e:	b3 01       	movw	r22, r6
     560:	0e 94 4a 14 	call	0x2894	; 0x2894 <fputc>
     564:	8a 94       	dec	r8
     566:	88 20       	and	r8, r8
     568:	c1 f7       	brne	.-16     	; 0x55a <vfprintf+0x2ee>
     56a:	11 23       	and	r17, r17
     56c:	29 f0       	breq	.+10     	; 0x578 <vfprintf+0x30c>
     56e:	81 2f       	mov	r24, r17
     570:	90 e0       	ldi	r25, 0x00	; 0
     572:	b3 01       	movw	r22, r6
     574:	0e 94 4a 14 	call	0x2894	; 0x2894 <fputc>
     578:	43 fe       	sbrs	r4, 3
     57a:	07 c0       	rjmp	.+14     	; 0x58a <vfprintf+0x31e>
     57c:	08 c0       	rjmp	.+16     	; 0x58e <vfprintf+0x322>
     57e:	80 e3       	ldi	r24, 0x30	; 48
     580:	90 e0       	ldi	r25, 0x00	; 0
     582:	b3 01       	movw	r22, r6
     584:	0e 94 4a 14 	call	0x2894	; 0x2894 <fputc>
     588:	8a 94       	dec	r8
     58a:	88 20       	and	r8, r8
     58c:	c1 f7       	brne	.-16     	; 0x57e <vfprintf+0x312>
     58e:	f7 fe       	sbrs	r15, 7
     590:	46 c0       	rjmp	.+140    	; 0x61e <vfprintf+0x3b2>
     592:	86 01       	movw	r16, r12
     594:	d7 fe       	sbrs	r13, 7
     596:	02 c0       	rjmp	.+4      	; 0x59c <vfprintf+0x330>
     598:	00 e0       	ldi	r16, 0x00	; 0
     59a:	10 e0       	ldi	r17, 0x00	; 0
     59c:	76 01       	movw	r14, r12
     59e:	08 94       	sec
     5a0:	e1 1c       	adc	r14, r1
     5a2:	f1 1c       	adc	r15, r1
     5a4:	e0 1a       	sub	r14, r16
     5a6:	f1 0a       	sbc	r15, r17
     5a8:	41 e0       	ldi	r20, 0x01	; 1
     5aa:	50 e0       	ldi	r21, 0x00	; 0
     5ac:	4c 0f       	add	r20, r28
     5ae:	5d 1f       	adc	r21, r29
     5b0:	e4 0e       	add	r14, r20
     5b2:	f5 1e       	adc	r15, r21
     5b4:	26 01       	movw	r4, r12
     5b6:	4b 18       	sub	r4, r11
     5b8:	51 08       	sbc	r5, r1
     5ba:	89 2d       	mov	r24, r9
     5bc:	90 e0       	ldi	r25, 0x00	; 0
     5be:	aa 24       	eor	r10, r10
     5c0:	bb 24       	eor	r11, r11
     5c2:	a8 1a       	sub	r10, r24
     5c4:	b9 0a       	sbc	r11, r25
     5c6:	5f ef       	ldi	r21, 0xFF	; 255
     5c8:	0f 3f       	cpi	r16, 0xFF	; 255
     5ca:	15 07       	cpc	r17, r21
     5cc:	29 f4       	brne	.+10     	; 0x5d8 <vfprintf+0x36c>
     5ce:	8e e2       	ldi	r24, 0x2E	; 46
     5d0:	90 e0       	ldi	r25, 0x00	; 0
     5d2:	b3 01       	movw	r22, r6
     5d4:	0e 94 4a 14 	call	0x2894	; 0x2894 <fputc>
     5d8:	c0 16       	cp	r12, r16
     5da:	d1 06       	cpc	r13, r17
     5dc:	34 f0       	brlt	.+12     	; 0x5ea <vfprintf+0x37e>
     5de:	40 16       	cp	r4, r16
     5e0:	51 06       	cpc	r5, r17
     5e2:	1c f4       	brge	.+6      	; 0x5ea <vfprintf+0x37e>
     5e4:	f7 01       	movw	r30, r14
     5e6:	80 81       	ld	r24, Z
     5e8:	01 c0       	rjmp	.+2      	; 0x5ec <vfprintf+0x380>
     5ea:	80 e3       	ldi	r24, 0x30	; 48
     5ec:	01 50       	subi	r16, 0x01	; 1
     5ee:	10 40       	sbci	r17, 0x00	; 0
     5f0:	08 94       	sec
     5f2:	e1 1c       	adc	r14, r1
     5f4:	f1 1c       	adc	r15, r1
     5f6:	0a 15       	cp	r16, r10
     5f8:	1b 05       	cpc	r17, r11
     5fa:	2c f0       	brlt	.+10     	; 0x606 <vfprintf+0x39a>
     5fc:	90 e0       	ldi	r25, 0x00	; 0
     5fe:	b3 01       	movw	r22, r6
     600:	0e 94 4a 14 	call	0x2894	; 0x2894 <fputc>
     604:	e0 cf       	rjmp	.-64     	; 0x5c6 <vfprintf+0x35a>
     606:	0c 15       	cp	r16, r12
     608:	1d 05       	cpc	r17, r13
     60a:	39 f4       	brne	.+14     	; 0x61a <vfprintf+0x3ae>
     60c:	9a 81       	ldd	r25, Y+2	; 0x02
     60e:	96 33       	cpi	r25, 0x36	; 54
     610:	18 f4       	brcc	.+6      	; 0x618 <vfprintf+0x3ac>
     612:	95 33       	cpi	r25, 0x35	; 53
     614:	11 f4       	brne	.+4      	; 0x61a <vfprintf+0x3ae>
     616:	24 fe       	sbrs	r2, 4
     618:	81 e3       	ldi	r24, 0x31	; 49
     61a:	90 e0       	ldi	r25, 0x00	; 0
     61c:	4b c0       	rjmp	.+150    	; 0x6b4 <vfprintf+0x448>
     61e:	8a 81       	ldd	r24, Y+2	; 0x02
     620:	81 33       	cpi	r24, 0x31	; 49
     622:	09 f0       	breq	.+2      	; 0x626 <vfprintf+0x3ba>
     624:	0f 7e       	andi	r16, 0xEF	; 239
     626:	90 e0       	ldi	r25, 0x00	; 0
     628:	b3 01       	movw	r22, r6
     62a:	0e 94 4a 14 	call	0x2894	; 0x2894 <fputc>
     62e:	99 20       	and	r9, r9
     630:	a1 f0       	breq	.+40     	; 0x65a <vfprintf+0x3ee>
     632:	8e e2       	ldi	r24, 0x2E	; 46
     634:	90 e0       	ldi	r25, 0x00	; 0
     636:	b3 01       	movw	r22, r6
     638:	0e 94 4a 14 	call	0x2894	; 0x2894 <fputc>
     63c:	12 e0       	ldi	r17, 0x02	; 2
     63e:	e1 e0       	ldi	r30, 0x01	; 1
     640:	f0 e0       	ldi	r31, 0x00	; 0
     642:	ec 0f       	add	r30, r28
     644:	fd 1f       	adc	r31, r29
     646:	e1 0f       	add	r30, r17
     648:	f1 1d       	adc	r31, r1
     64a:	1f 5f       	subi	r17, 0xFF	; 255
     64c:	80 81       	ld	r24, Z
     64e:	90 e0       	ldi	r25, 0x00	; 0
     650:	b3 01       	movw	r22, r6
     652:	0e 94 4a 14 	call	0x2894	; 0x2894 <fputc>
     656:	9a 94       	dec	r9
     658:	91 f7       	brne	.-28     	; 0x63e <vfprintf+0x3d2>
     65a:	44 fc       	sbrc	r4, 4
     65c:	03 c0       	rjmp	.+6      	; 0x664 <vfprintf+0x3f8>
     65e:	85 e6       	ldi	r24, 0x65	; 101
     660:	90 e0       	ldi	r25, 0x00	; 0
     662:	02 c0       	rjmp	.+4      	; 0x668 <vfprintf+0x3fc>
     664:	85 e4       	ldi	r24, 0x45	; 69
     666:	90 e0       	ldi	r25, 0x00	; 0
     668:	b3 01       	movw	r22, r6
     66a:	0e 94 4a 14 	call	0x2894	; 0x2894 <fputc>
     66e:	d7 fc       	sbrc	r13, 7
     670:	05 c0       	rjmp	.+10     	; 0x67c <vfprintf+0x410>
     672:	c1 14       	cp	r12, r1
     674:	d1 04       	cpc	r13, r1
     676:	41 f4       	brne	.+16     	; 0x688 <vfprintf+0x41c>
     678:	04 ff       	sbrs	r16, 4
     67a:	06 c0       	rjmp	.+12     	; 0x688 <vfprintf+0x41c>
     67c:	d0 94       	com	r13
     67e:	c1 94       	neg	r12
     680:	d1 08       	sbc	r13, r1
     682:	d3 94       	inc	r13
     684:	8d e2       	ldi	r24, 0x2D	; 45
     686:	01 c0       	rjmp	.+2      	; 0x68a <vfprintf+0x41e>
     688:	8b e2       	ldi	r24, 0x2B	; 43
     68a:	90 e0       	ldi	r25, 0x00	; 0
     68c:	b3 01       	movw	r22, r6
     68e:	0e 94 4a 14 	call	0x2894	; 0x2894 <fputc>
     692:	80 e3       	ldi	r24, 0x30	; 48
     694:	05 c0       	rjmp	.+10     	; 0x6a0 <vfprintf+0x434>
     696:	8f 5f       	subi	r24, 0xFF	; 255
     698:	26 ef       	ldi	r18, 0xF6	; 246
     69a:	3f ef       	ldi	r19, 0xFF	; 255
     69c:	c2 0e       	add	r12, r18
     69e:	d3 1e       	adc	r13, r19
     6a0:	3a e0       	ldi	r19, 0x0A	; 10
     6a2:	c3 16       	cp	r12, r19
     6a4:	d1 04       	cpc	r13, r1
     6a6:	bc f7       	brge	.-18     	; 0x696 <vfprintf+0x42a>
     6a8:	90 e0       	ldi	r25, 0x00	; 0
     6aa:	b3 01       	movw	r22, r6
     6ac:	0e 94 4a 14 	call	0x2894	; 0x2894 <fputc>
     6b0:	c6 01       	movw	r24, r12
     6b2:	c0 96       	adiw	r24, 0x30	; 48
     6b4:	b3 01       	movw	r22, r6
     6b6:	0e 94 4a 14 	call	0x2894	; 0x2894 <fputc>
     6ba:	cc 84       	ldd	r12, Y+12	; 0x0c
     6bc:	dd 84       	ldd	r13, Y+13	; 0x0d
     6be:	52 c1       	rjmp	.+676    	; 0x964 <vfprintf+0x6f8>
     6c0:	93 36       	cpi	r25, 0x63	; 99
     6c2:	31 f0       	breq	.+12     	; 0x6d0 <vfprintf+0x464>
     6c4:	93 37       	cpi	r25, 0x73	; 115
     6c6:	99 f0       	breq	.+38     	; 0x6ee <vfprintf+0x482>
     6c8:	93 35       	cpi	r25, 0x53	; 83
     6ca:	09 f0       	breq	.+2      	; 0x6ce <vfprintf+0x462>
     6cc:	59 c0       	rjmp	.+178    	; 0x780 <vfprintf+0x514>
     6ce:	23 c0       	rjmp	.+70     	; 0x716 <vfprintf+0x4aa>
     6d0:	f6 01       	movw	r30, r12
     6d2:	80 81       	ld	r24, Z
     6d4:	89 83       	std	Y+1, r24	; 0x01
     6d6:	5e 01       	movw	r10, r28
     6d8:	08 94       	sec
     6da:	a1 1c       	adc	r10, r1
     6dc:	b1 1c       	adc	r11, r1
     6de:	22 e0       	ldi	r18, 0x02	; 2
     6e0:	30 e0       	ldi	r19, 0x00	; 0
     6e2:	c2 0e       	add	r12, r18
     6e4:	d3 1e       	adc	r13, r19
     6e6:	21 e0       	ldi	r18, 0x01	; 1
     6e8:	e2 2e       	mov	r14, r18
     6ea:	f1 2c       	mov	r15, r1
     6ec:	12 c0       	rjmp	.+36     	; 0x712 <vfprintf+0x4a6>
     6ee:	f6 01       	movw	r30, r12
     6f0:	a0 80       	ld	r10, Z
     6f2:	b1 80       	ldd	r11, Z+1	; 0x01
     6f4:	16 fd       	sbrc	r17, 6
     6f6:	03 c0       	rjmp	.+6      	; 0x6fe <vfprintf+0x492>
     6f8:	6f ef       	ldi	r22, 0xFF	; 255
     6fa:	7f ef       	ldi	r23, 0xFF	; 255
     6fc:	02 c0       	rjmp	.+4      	; 0x702 <vfprintf+0x496>
     6fe:	69 2d       	mov	r22, r9
     700:	70 e0       	ldi	r23, 0x00	; 0
     702:	22 e0       	ldi	r18, 0x02	; 2
     704:	30 e0       	ldi	r19, 0x00	; 0
     706:	c2 0e       	add	r12, r18
     708:	d3 1e       	adc	r13, r19
     70a:	c5 01       	movw	r24, r10
     70c:	0e 94 3f 14 	call	0x287e	; 0x287e <strnlen>
     710:	7c 01       	movw	r14, r24
     712:	1f 77       	andi	r17, 0x7F	; 127
     714:	13 c0       	rjmp	.+38     	; 0x73c <vfprintf+0x4d0>
     716:	f6 01       	movw	r30, r12
     718:	a0 80       	ld	r10, Z
     71a:	b1 80       	ldd	r11, Z+1	; 0x01
     71c:	16 fd       	sbrc	r17, 6
     71e:	03 c0       	rjmp	.+6      	; 0x726 <vfprintf+0x4ba>
     720:	6f ef       	ldi	r22, 0xFF	; 255
     722:	7f ef       	ldi	r23, 0xFF	; 255
     724:	02 c0       	rjmp	.+4      	; 0x72a <vfprintf+0x4be>
     726:	69 2d       	mov	r22, r9
     728:	70 e0       	ldi	r23, 0x00	; 0
     72a:	22 e0       	ldi	r18, 0x02	; 2
     72c:	30 e0       	ldi	r19, 0x00	; 0
     72e:	c2 0e       	add	r12, r18
     730:	d3 1e       	adc	r13, r19
     732:	c5 01       	movw	r24, r10
     734:	0e 94 34 14 	call	0x2868	; 0x2868 <strnlen_P>
     738:	7c 01       	movw	r14, r24
     73a:	10 68       	ori	r17, 0x80	; 128
     73c:	13 ff       	sbrs	r17, 3
     73e:	07 c0       	rjmp	.+14     	; 0x74e <vfprintf+0x4e2>
     740:	1b c0       	rjmp	.+54     	; 0x778 <vfprintf+0x50c>
     742:	80 e2       	ldi	r24, 0x20	; 32
     744:	90 e0       	ldi	r25, 0x00	; 0
     746:	b3 01       	movw	r22, r6
     748:	0e 94 4a 14 	call	0x2894	; 0x2894 <fputc>
     74c:	8a 94       	dec	r8
     74e:	88 2d       	mov	r24, r8
     750:	90 e0       	ldi	r25, 0x00	; 0
     752:	e8 16       	cp	r14, r24
     754:	f9 06       	cpc	r15, r25
     756:	a8 f3       	brcs	.-22     	; 0x742 <vfprintf+0x4d6>
     758:	0f c0       	rjmp	.+30     	; 0x778 <vfprintf+0x50c>
     75a:	f5 01       	movw	r30, r10
     75c:	17 fd       	sbrc	r17, 7
     75e:	85 91       	lpm	r24, Z+
     760:	17 ff       	sbrs	r17, 7
     762:	81 91       	ld	r24, Z+
     764:	5f 01       	movw	r10, r30
     766:	90 e0       	ldi	r25, 0x00	; 0
     768:	b3 01       	movw	r22, r6
     76a:	0e 94 4a 14 	call	0x2894	; 0x2894 <fputc>
     76e:	81 10       	cpse	r8, r1
     770:	8a 94       	dec	r8
     772:	08 94       	sec
     774:	e1 08       	sbc	r14, r1
     776:	f1 08       	sbc	r15, r1
     778:	e1 14       	cp	r14, r1
     77a:	f1 04       	cpc	r15, r1
     77c:	71 f7       	brne	.-36     	; 0x75a <vfprintf+0x4ee>
     77e:	f2 c0       	rjmp	.+484    	; 0x964 <vfprintf+0x6f8>
     780:	94 36       	cpi	r25, 0x64	; 100
     782:	11 f0       	breq	.+4      	; 0x788 <vfprintf+0x51c>
     784:	99 36       	cpi	r25, 0x69	; 105
     786:	89 f5       	brne	.+98     	; 0x7ea <vfprintf+0x57e>
     788:	17 ff       	sbrs	r17, 7
     78a:	08 c0       	rjmp	.+16     	; 0x79c <vfprintf+0x530>
     78c:	f6 01       	movw	r30, r12
     78e:	20 81       	ld	r18, Z
     790:	31 81       	ldd	r19, Z+1	; 0x01
     792:	42 81       	ldd	r20, Z+2	; 0x02
     794:	53 81       	ldd	r21, Z+3	; 0x03
     796:	84 e0       	ldi	r24, 0x04	; 4
     798:	90 e0       	ldi	r25, 0x00	; 0
     79a:	0a c0       	rjmp	.+20     	; 0x7b0 <vfprintf+0x544>
     79c:	f6 01       	movw	r30, r12
     79e:	80 81       	ld	r24, Z
     7a0:	91 81       	ldd	r25, Z+1	; 0x01
     7a2:	9c 01       	movw	r18, r24
     7a4:	44 27       	eor	r20, r20
     7a6:	37 fd       	sbrc	r19, 7
     7a8:	40 95       	com	r20
     7aa:	54 2f       	mov	r21, r20
     7ac:	82 e0       	ldi	r24, 0x02	; 2
     7ae:	90 e0       	ldi	r25, 0x00	; 0
     7b0:	c8 0e       	add	r12, r24
     7b2:	d9 1e       	adc	r13, r25
     7b4:	9f e6       	ldi	r25, 0x6F	; 111
     7b6:	f9 2e       	mov	r15, r25
     7b8:	f1 22       	and	r15, r17
     7ba:	57 ff       	sbrs	r21, 7
     7bc:	09 c0       	rjmp	.+18     	; 0x7d0 <vfprintf+0x564>
     7be:	50 95       	com	r21
     7c0:	40 95       	com	r20
     7c2:	30 95       	com	r19
     7c4:	21 95       	neg	r18
     7c6:	3f 4f       	sbci	r19, 0xFF	; 255
     7c8:	4f 4f       	sbci	r20, 0xFF	; 255
     7ca:	5f 4f       	sbci	r21, 0xFF	; 255
     7cc:	90 e8       	ldi	r25, 0x80	; 128
     7ce:	f9 2a       	or	r15, r25
     7d0:	ca 01       	movw	r24, r20
     7d2:	b9 01       	movw	r22, r18
     7d4:	ae 01       	movw	r20, r28
     7d6:	4f 5f       	subi	r20, 0xFF	; 255
     7d8:	5f 4f       	sbci	r21, 0xFF	; 255
     7da:	2a e0       	ldi	r18, 0x0A	; 10
     7dc:	30 e0       	ldi	r19, 0x00	; 0
     7de:	0e 94 af 14 	call	0x295e	; 0x295e <__ultoa_invert>
     7e2:	e8 2e       	mov	r14, r24
     7e4:	e8 89       	ldd	r30, Y+16	; 0x10
     7e6:	ee 1a       	sub	r14, r30
     7e8:	41 c0       	rjmp	.+130    	; 0x86c <vfprintf+0x600>
     7ea:	95 37       	cpi	r25, 0x75	; 117
     7ec:	21 f4       	brne	.+8      	; 0x7f6 <vfprintf+0x58a>
     7ee:	1f 7e       	andi	r17, 0xEF	; 239
     7f0:	2a e0       	ldi	r18, 0x0A	; 10
     7f2:	30 e0       	ldi	r19, 0x00	; 0
     7f4:	1c c0       	rjmp	.+56     	; 0x82e <vfprintf+0x5c2>
     7f6:	19 7f       	andi	r17, 0xF9	; 249
     7f8:	9f 36       	cpi	r25, 0x6F	; 111
     7fa:	61 f0       	breq	.+24     	; 0x814 <vfprintf+0x5a8>
     7fc:	90 37       	cpi	r25, 0x70	; 112
     7fe:	20 f4       	brcc	.+8      	; 0x808 <vfprintf+0x59c>
     800:	98 35       	cpi	r25, 0x58	; 88
     802:	09 f0       	breq	.+2      	; 0x806 <vfprintf+0x59a>
     804:	b2 c0       	rjmp	.+356    	; 0x96a <vfprintf+0x6fe>
     806:	0f c0       	rjmp	.+30     	; 0x826 <vfprintf+0x5ba>
     808:	90 37       	cpi	r25, 0x70	; 112
     80a:	39 f0       	breq	.+14     	; 0x81a <vfprintf+0x5ae>
     80c:	98 37       	cpi	r25, 0x78	; 120
     80e:	09 f0       	breq	.+2      	; 0x812 <vfprintf+0x5a6>
     810:	ac c0       	rjmp	.+344    	; 0x96a <vfprintf+0x6fe>
     812:	04 c0       	rjmp	.+8      	; 0x81c <vfprintf+0x5b0>
     814:	28 e0       	ldi	r18, 0x08	; 8
     816:	30 e0       	ldi	r19, 0x00	; 0
     818:	0a c0       	rjmp	.+20     	; 0x82e <vfprintf+0x5c2>
     81a:	10 61       	ori	r17, 0x10	; 16
     81c:	14 fd       	sbrc	r17, 4
     81e:	14 60       	ori	r17, 0x04	; 4
     820:	20 e1       	ldi	r18, 0x10	; 16
     822:	30 e0       	ldi	r19, 0x00	; 0
     824:	04 c0       	rjmp	.+8      	; 0x82e <vfprintf+0x5c2>
     826:	14 fd       	sbrc	r17, 4
     828:	16 60       	ori	r17, 0x06	; 6
     82a:	20 e1       	ldi	r18, 0x10	; 16
     82c:	32 e0       	ldi	r19, 0x02	; 2
     82e:	17 ff       	sbrs	r17, 7
     830:	08 c0       	rjmp	.+16     	; 0x842 <vfprintf+0x5d6>
     832:	f6 01       	movw	r30, r12
     834:	60 81       	ld	r22, Z
     836:	71 81       	ldd	r23, Z+1	; 0x01
     838:	82 81       	ldd	r24, Z+2	; 0x02
     83a:	93 81       	ldd	r25, Z+3	; 0x03
     83c:	44 e0       	ldi	r20, 0x04	; 4
     83e:	50 e0       	ldi	r21, 0x00	; 0
     840:	08 c0       	rjmp	.+16     	; 0x852 <vfprintf+0x5e6>
     842:	f6 01       	movw	r30, r12
     844:	80 81       	ld	r24, Z
     846:	91 81       	ldd	r25, Z+1	; 0x01
     848:	bc 01       	movw	r22, r24
     84a:	80 e0       	ldi	r24, 0x00	; 0
     84c:	90 e0       	ldi	r25, 0x00	; 0
     84e:	42 e0       	ldi	r20, 0x02	; 2
     850:	50 e0       	ldi	r21, 0x00	; 0
     852:	c4 0e       	add	r12, r20
     854:	d5 1e       	adc	r13, r21
     856:	ae 01       	movw	r20, r28
     858:	4f 5f       	subi	r20, 0xFF	; 255
     85a:	5f 4f       	sbci	r21, 0xFF	; 255
     85c:	0e 94 af 14 	call	0x295e	; 0x295e <__ultoa_invert>
     860:	e8 2e       	mov	r14, r24
     862:	58 89       	ldd	r21, Y+16	; 0x10
     864:	e5 1a       	sub	r14, r21
     866:	8f e7       	ldi	r24, 0x7F	; 127
     868:	f8 2e       	mov	r15, r24
     86a:	f1 22       	and	r15, r17
     86c:	f6 fe       	sbrs	r15, 6
     86e:	0b c0       	rjmp	.+22     	; 0x886 <vfprintf+0x61a>
     870:	8e ef       	ldi	r24, 0xFE	; 254
     872:	f8 22       	and	r15, r24
     874:	e9 14       	cp	r14, r9
     876:	38 f4       	brcc	.+14     	; 0x886 <vfprintf+0x61a>
     878:	f4 fe       	sbrs	r15, 4
     87a:	07 c0       	rjmp	.+14     	; 0x88a <vfprintf+0x61e>
     87c:	f2 fc       	sbrc	r15, 2
     87e:	05 c0       	rjmp	.+10     	; 0x88a <vfprintf+0x61e>
     880:	9f ee       	ldi	r25, 0xEF	; 239
     882:	f9 22       	and	r15, r25
     884:	02 c0       	rjmp	.+4      	; 0x88a <vfprintf+0x61e>
     886:	1e 2d       	mov	r17, r14
     888:	01 c0       	rjmp	.+2      	; 0x88c <vfprintf+0x620>
     88a:	19 2d       	mov	r17, r9
     88c:	f4 fe       	sbrs	r15, 4
     88e:	0d c0       	rjmp	.+26     	; 0x8aa <vfprintf+0x63e>
     890:	fe 01       	movw	r30, r28
     892:	ee 0d       	add	r30, r14
     894:	f1 1d       	adc	r31, r1
     896:	80 81       	ld	r24, Z
     898:	80 33       	cpi	r24, 0x30	; 48
     89a:	19 f4       	brne	.+6      	; 0x8a2 <vfprintf+0x636>
     89c:	e9 ee       	ldi	r30, 0xE9	; 233
     89e:	fe 22       	and	r15, r30
     8a0:	08 c0       	rjmp	.+16     	; 0x8b2 <vfprintf+0x646>
     8a2:	1f 5f       	subi	r17, 0xFF	; 255
     8a4:	f2 fe       	sbrs	r15, 2
     8a6:	05 c0       	rjmp	.+10     	; 0x8b2 <vfprintf+0x646>
     8a8:	03 c0       	rjmp	.+6      	; 0x8b0 <vfprintf+0x644>
     8aa:	8f 2d       	mov	r24, r15
     8ac:	86 78       	andi	r24, 0x86	; 134
     8ae:	09 f0       	breq	.+2      	; 0x8b2 <vfprintf+0x646>
     8b0:	1f 5f       	subi	r17, 0xFF	; 255
     8b2:	0f 2d       	mov	r16, r15
     8b4:	f3 fc       	sbrc	r15, 3
     8b6:	14 c0       	rjmp	.+40     	; 0x8e0 <vfprintf+0x674>
     8b8:	f0 fe       	sbrs	r15, 0
     8ba:	0f c0       	rjmp	.+30     	; 0x8da <vfprintf+0x66e>
     8bc:	18 15       	cp	r17, r8
     8be:	10 f0       	brcs	.+4      	; 0x8c4 <vfprintf+0x658>
     8c0:	9e 2c       	mov	r9, r14
     8c2:	0b c0       	rjmp	.+22     	; 0x8da <vfprintf+0x66e>
     8c4:	9e 2c       	mov	r9, r14
     8c6:	98 0c       	add	r9, r8
     8c8:	91 1a       	sub	r9, r17
     8ca:	18 2d       	mov	r17, r8
     8cc:	06 c0       	rjmp	.+12     	; 0x8da <vfprintf+0x66e>
     8ce:	80 e2       	ldi	r24, 0x20	; 32
     8d0:	90 e0       	ldi	r25, 0x00	; 0
     8d2:	b3 01       	movw	r22, r6
     8d4:	0e 94 4a 14 	call	0x2894	; 0x2894 <fputc>
     8d8:	1f 5f       	subi	r17, 0xFF	; 255
     8da:	18 15       	cp	r17, r8
     8dc:	c0 f3       	brcs	.-16     	; 0x8ce <vfprintf+0x662>
     8de:	04 c0       	rjmp	.+8      	; 0x8e8 <vfprintf+0x67c>
     8e0:	18 15       	cp	r17, r8
     8e2:	10 f4       	brcc	.+4      	; 0x8e8 <vfprintf+0x67c>
     8e4:	81 1a       	sub	r8, r17
     8e6:	01 c0       	rjmp	.+2      	; 0x8ea <vfprintf+0x67e>
     8e8:	88 24       	eor	r8, r8
     8ea:	04 ff       	sbrs	r16, 4
     8ec:	0f c0       	rjmp	.+30     	; 0x90c <vfprintf+0x6a0>
     8ee:	80 e3       	ldi	r24, 0x30	; 48
     8f0:	90 e0       	ldi	r25, 0x00	; 0
     8f2:	b3 01       	movw	r22, r6
     8f4:	0e 94 4a 14 	call	0x2894	; 0x2894 <fputc>
     8f8:	02 ff       	sbrs	r16, 2
     8fa:	1d c0       	rjmp	.+58     	; 0x936 <vfprintf+0x6ca>
     8fc:	01 fd       	sbrc	r16, 1
     8fe:	03 c0       	rjmp	.+6      	; 0x906 <vfprintf+0x69a>
     900:	88 e7       	ldi	r24, 0x78	; 120
     902:	90 e0       	ldi	r25, 0x00	; 0
     904:	0e c0       	rjmp	.+28     	; 0x922 <vfprintf+0x6b6>
     906:	88 e5       	ldi	r24, 0x58	; 88
     908:	90 e0       	ldi	r25, 0x00	; 0
     90a:	0b c0       	rjmp	.+22     	; 0x922 <vfprintf+0x6b6>
     90c:	80 2f       	mov	r24, r16
     90e:	86 78       	andi	r24, 0x86	; 134
     910:	91 f0       	breq	.+36     	; 0x936 <vfprintf+0x6ca>
     912:	01 ff       	sbrs	r16, 1
     914:	02 c0       	rjmp	.+4      	; 0x91a <vfprintf+0x6ae>
     916:	8b e2       	ldi	r24, 0x2B	; 43
     918:	01 c0       	rjmp	.+2      	; 0x91c <vfprintf+0x6b0>
     91a:	80 e2       	ldi	r24, 0x20	; 32
     91c:	f7 fc       	sbrc	r15, 7
     91e:	8d e2       	ldi	r24, 0x2D	; 45
     920:	90 e0       	ldi	r25, 0x00	; 0
     922:	b3 01       	movw	r22, r6
     924:	0e 94 4a 14 	call	0x2894	; 0x2894 <fputc>
     928:	06 c0       	rjmp	.+12     	; 0x936 <vfprintf+0x6ca>
     92a:	80 e3       	ldi	r24, 0x30	; 48
     92c:	90 e0       	ldi	r25, 0x00	; 0
     92e:	b3 01       	movw	r22, r6
     930:	0e 94 4a 14 	call	0x2894	; 0x2894 <fputc>
     934:	9a 94       	dec	r9
     936:	e9 14       	cp	r14, r9
     938:	c0 f3       	brcs	.-16     	; 0x92a <vfprintf+0x6be>
     93a:	ea 94       	dec	r14
     93c:	e1 e0       	ldi	r30, 0x01	; 1
     93e:	f0 e0       	ldi	r31, 0x00	; 0
     940:	ec 0f       	add	r30, r28
     942:	fd 1f       	adc	r31, r29
     944:	ee 0d       	add	r30, r14
     946:	f1 1d       	adc	r31, r1
     948:	80 81       	ld	r24, Z
     94a:	90 e0       	ldi	r25, 0x00	; 0
     94c:	b3 01       	movw	r22, r6
     94e:	0e 94 4a 14 	call	0x2894	; 0x2894 <fputc>
     952:	ee 20       	and	r14, r14
     954:	91 f7       	brne	.-28     	; 0x93a <vfprintf+0x6ce>
     956:	06 c0       	rjmp	.+12     	; 0x964 <vfprintf+0x6f8>
     958:	80 e2       	ldi	r24, 0x20	; 32
     95a:	90 e0       	ldi	r25, 0x00	; 0
     95c:	b3 01       	movw	r22, r6
     95e:	0e 94 4a 14 	call	0x2894	; 0x2894 <fputc>
     962:	8a 94       	dec	r8
     964:	88 20       	and	r8, r8
     966:	c1 f7       	brne	.-16     	; 0x958 <vfprintf+0x6ec>
     968:	99 cc       	rjmp	.-1742   	; 0x29c <vfprintf+0x30>
     96a:	f3 01       	movw	r30, r6
     96c:	66 81       	ldd	r22, Z+6	; 0x06
     96e:	77 81       	ldd	r23, Z+7	; 0x07
     970:	cb 01       	movw	r24, r22
     972:	61 96       	adiw	r28, 0x11	; 17
     974:	e2 e1       	ldi	r30, 0x12	; 18
     976:	0c 94 2d 13 	jmp	0x265a	; 0x265a <__epilogue_restores__>

0000097a <initADC>:
     97a:	80 64       	ori	r24, 0x40	; 64
     97c:	80 93 7c 00 	sts	0x007C, r24
     980:	ea e7       	ldi	r30, 0x7A	; 122
     982:	f0 e0       	ldi	r31, 0x00	; 0
     984:	80 81       	ld	r24, Z
     986:	87 60       	ori	r24, 0x07	; 7
     988:	80 83       	st	Z, r24
     98a:	80 81       	ld	r24, Z
     98c:	80 68       	ori	r24, 0x80	; 128
     98e:	80 83       	st	Z, r24
     990:	80 81       	ld	r24, Z
     992:	80 64       	ori	r24, 0x40	; 64
     994:	80 83       	st	Z, r24
     996:	80 e4       	ldi	r24, 0x40	; 64
     998:	80 93 7b 00 	sts	0x007B, r24
     99c:	11 b8       	out	0x01, r1	; 1
     99e:	08 95       	ret

000009a0 <clearADC>:
     9a0:	80 74       	andi	r24, 0x40	; 64
     9a2:	80 93 7c 00 	sts	0x007C, r24
     9a6:	08 95       	ret

000009a8 <getADC>:
     9a8:	20 91 7c 00 	lds	r18, 0x007C
     9ac:	87 70       	andi	r24, 0x07	; 7
     9ae:	90 70       	andi	r25, 0x00	; 0
     9b0:	28 7f       	andi	r18, 0xF8	; 248
     9b2:	28 2b       	or	r18, r24
     9b4:	20 93 7c 00 	sts	0x007C, r18
     9b8:	80 91 7a 00 	lds	r24, 0x007A
     9bc:	80 64       	ori	r24, 0x40	; 64
     9be:	80 93 7a 00 	sts	0x007A, r24
     9c2:	80 91 7a 00 	lds	r24, 0x007A
     9c6:	84 ff       	sbrs	r24, 4
     9c8:	fc cf       	rjmp	.-8      	; 0x9c2 <getADC+0x1a>
     9ca:	80 91 7a 00 	lds	r24, 0x007A
     9ce:	80 61       	ori	r24, 0x10	; 16
     9d0:	80 93 7a 00 	sts	0x007A, r24
     9d4:	20 91 78 00 	lds	r18, 0x0078
     9d8:	30 91 79 00 	lds	r19, 0x0079
     9dc:	c9 01       	movw	r24, r18
     9de:	08 95       	ret

000009e0 <changeADC>:
     9e0:	80 64       	ori	r24, 0x40	; 64
     9e2:	80 93 7c 00 	sts	0x007C, r24
     9e6:	08 95       	ret

000009e8 <setDAC>:
     9e8:	ef 92       	push	r14
     9ea:	ff 92       	push	r15
     9ec:	0f 93       	push	r16
     9ee:	1f 93       	push	r17
     9f0:	48 2f       	mov	r20, r24
     9f2:	cb 01       	movw	r24, r22
     9f4:	20 e1       	ldi	r18, 0x10	; 16
     9f6:	60 30       	cpi	r22, 0x00	; 0
     9f8:	72 07       	cpc	r23, r18
     9fa:	14 f0       	brlt	.+4      	; 0xa00 <setDAC+0x18>
     9fc:	8f ef       	ldi	r24, 0xFF	; 255
     9fe:	9f e0       	ldi	r25, 0x0F	; 15
     a00:	7c 01       	movw	r14, r24
     a02:	00 27       	eor	r16, r16
     a04:	f7 fc       	sbrc	r15, 7
     a06:	00 95       	com	r16
     a08:	10 2f       	mov	r17, r16
     a0a:	80 91 2b 00 	lds	r24, 0x002B
     a0e:	8f 7e       	andi	r24, 0xEF	; 239
     a10:	80 93 2b 00 	sts	0x002B, r24
     a14:	84 2f       	mov	r24, r20
     a16:	80 63       	ori	r24, 0x30	; 48
     a18:	0e 94 46 08 	call	0x108c	; 0x108c <spiTransceive>
     a1c:	d8 01       	movw	r26, r16
     a1e:	c7 01       	movw	r24, r14
     a20:	24 e0       	ldi	r18, 0x04	; 4
     a22:	b6 95       	lsr	r27
     a24:	a7 95       	ror	r26
     a26:	97 95       	ror	r25
     a28:	87 95       	ror	r24
     a2a:	2a 95       	dec	r18
     a2c:	d1 f7       	brne	.-12     	; 0xa22 <setDAC+0x3a>
     a2e:	0e 94 46 08 	call	0x108c	; 0x108c <spiTransceive>
     a32:	8f e0       	ldi	r24, 0x0F	; 15
     a34:	90 e0       	ldi	r25, 0x00	; 0
     a36:	a0 e0       	ldi	r26, 0x00	; 0
     a38:	b0 e0       	ldi	r27, 0x00	; 0
     a3a:	e8 22       	and	r14, r24
     a3c:	f9 22       	and	r15, r25
     a3e:	0a 23       	and	r16, r26
     a40:	1b 23       	and	r17, r27
     a42:	8e 2d       	mov	r24, r14
     a44:	82 95       	swap	r24
     a46:	80 7f       	andi	r24, 0xF0	; 240
     a48:	0e 94 46 08 	call	0x108c	; 0x108c <spiTransceive>
     a4c:	80 91 2b 00 	lds	r24, 0x002B
     a50:	80 61       	ori	r24, 0x10	; 16
     a52:	80 93 2b 00 	sts	0x002B, r24
     a56:	1f 91       	pop	r17
     a58:	0f 91       	pop	r16
     a5a:	ff 90       	pop	r15
     a5c:	ef 90       	pop	r14
     a5e:	08 95       	ret

00000a60 <setConst>:
     a60:	cf 92       	push	r12
     a62:	df 92       	push	r13
     a64:	ef 92       	push	r14
     a66:	ff 92       	push	r15
     a68:	0f 93       	push	r16
     a6a:	1f 93       	push	r17
     a6c:	88 34       	cpi	r24, 0x48	; 72
     a6e:	19 f0       	breq	.+6      	; 0xa76 <setConst+0x16>
     a70:	8c 34       	cpi	r24, 0x4C	; 76
     a72:	91 f5       	brne	.+100    	; 0xad8 <setConst+0x78>
     a74:	19 c0       	rjmp	.+50     	; 0xaa8 <setConst+0x48>
     a76:	40 93 cb 01 	sts	0x01CB, r20
     a7a:	50 93 cc 01 	sts	0x01CC, r21
     a7e:	60 93 cd 01 	sts	0x01CD, r22
     a82:	70 93 ce 01 	sts	0x01CE, r23
     a86:	00 93 cf 01 	sts	0x01CF, r16
     a8a:	10 93 d0 01 	sts	0x01D0, r17
     a8e:	20 93 d1 01 	sts	0x01D1, r18
     a92:	30 93 d2 01 	sts	0x01D2, r19
     a96:	c0 92 d3 01 	sts	0x01D3, r12
     a9a:	d0 92 d4 01 	sts	0x01D4, r13
     a9e:	e0 92 d5 01 	sts	0x01D5, r14
     aa2:	f0 92 d6 01 	sts	0x01D6, r15
     aa6:	18 c0       	rjmp	.+48     	; 0xad8 <setConst+0x78>
     aa8:	40 93 d7 01 	sts	0x01D7, r20
     aac:	50 93 d8 01 	sts	0x01D8, r21
     ab0:	60 93 d9 01 	sts	0x01D9, r22
     ab4:	70 93 da 01 	sts	0x01DA, r23
     ab8:	00 93 db 01 	sts	0x01DB, r16
     abc:	10 93 dc 01 	sts	0x01DC, r17
     ac0:	20 93 dd 01 	sts	0x01DD, r18
     ac4:	30 93 de 01 	sts	0x01DE, r19
     ac8:	c0 92 df 01 	sts	0x01DF, r12
     acc:	d0 92 e0 01 	sts	0x01E0, r13
     ad0:	e0 92 e1 01 	sts	0x01E1, r14
     ad4:	f0 92 e2 01 	sts	0x01E2, r15
     ad8:	1f 91       	pop	r17
     ada:	0f 91       	pop	r16
     adc:	ff 90       	pop	r15
     ade:	ef 90       	pop	r14
     ae0:	df 90       	pop	r13
     ae2:	cf 90       	pop	r12
     ae4:	08 95       	ret

00000ae6 <calcError>:
     ae6:	9c 01       	movw	r18, r24
     ae8:	26 1b       	sub	r18, r22
     aea:	37 0b       	sbc	r19, r23
     aec:	c9 01       	movw	r24, r18
     aee:	08 95       	ret

00000af0 <updateHistory>:
     af0:	df 92       	push	r13
     af2:	ef 92       	push	r14
     af4:	ff 92       	push	r15
     af6:	0f 93       	push	r16
     af8:	1f 93       	push	r17
     afa:	cf 93       	push	r28
     afc:	df 93       	push	r29
     afe:	d4 2e       	mov	r13, r20
     b00:	86 1b       	sub	r24, r22
     b02:	97 0b       	sbc	r25, r23
     b04:	aa 27       	eor	r26, r26
     b06:	97 fd       	sbrc	r25, 7
     b08:	a0 95       	com	r26
     b0a:	ba 2f       	mov	r27, r26
     b0c:	bc 01       	movw	r22, r24
     b0e:	cd 01       	movw	r24, r26
     b10:	0e 94 3c 10 	call	0x2078	; 0x2078 <__floatsisf>
     b14:	7b 01       	movw	r14, r22
     b16:	8c 01       	movw	r16, r24
     b18:	63 ee       	ldi	r22, 0xE3	; 227
     b1a:	71 e0       	ldi	r23, 0x01	; 1
     b1c:	cb e7       	ldi	r28, 0x7B	; 123
     b1e:	d1 e0       	ldi	r29, 0x01	; 1
     b20:	e0 e0       	ldi	r30, 0x00	; 0
     b22:	f0 e0       	ldi	r31, 0x00	; 0
     b24:	e3 31       	cpi	r30, 0x13	; 19
     b26:	f1 05       	cpc	r31, r1
     b28:	c9 f4       	brne	.+50     	; 0xb5c <updateHistory+0x6c>
     b2a:	8c e4       	ldi	r24, 0x4C	; 76
     b2c:	d8 16       	cp	r13, r24
     b2e:	59 f4       	brne	.+22     	; 0xb46 <updateHistory+0x56>
     b30:	c7 01       	movw	r24, r14
     b32:	d8 01       	movw	r26, r16
     b34:	80 93 2f 02 	sts	0x022F, r24
     b38:	90 93 30 02 	sts	0x0230, r25
     b3c:	a0 93 31 02 	sts	0x0231, r26
     b40:	b0 93 32 02 	sts	0x0232, r27
     b44:	23 c0       	rjmp	.+70     	; 0xb8c <updateHistory+0x9c>
     b46:	c7 01       	movw	r24, r14
     b48:	d8 01       	movw	r26, r16
     b4a:	80 93 c7 01 	sts	0x01C7, r24
     b4e:	90 93 c8 01 	sts	0x01C8, r25
     b52:	a0 93 c9 01 	sts	0x01C9, r26
     b56:	b0 93 ca 01 	sts	0x01CA, r27
     b5a:	18 c0       	rjmp	.+48     	; 0xb8c <updateHistory+0x9c>
     b5c:	ac e4       	ldi	r26, 0x4C	; 76
     b5e:	da 16       	cp	r13, r26
     b60:	69 f4       	brne	.+26     	; 0xb7c <updateHistory+0x8c>
     b62:	db 01       	movw	r26, r22
     b64:	14 96       	adiw	r26, 0x04	; 4
     b66:	2d 91       	ld	r18, X+
     b68:	3d 91       	ld	r19, X+
     b6a:	4d 91       	ld	r20, X+
     b6c:	5c 91       	ld	r21, X
     b6e:	17 97       	sbiw	r26, 0x07	; 7
     b70:	2d 93       	st	X+, r18
     b72:	3d 93       	st	X+, r19
     b74:	4d 93       	st	X+, r20
     b76:	5c 93       	st	X, r21
     b78:	13 97       	sbiw	r26, 0x03	; 3
     b7a:	08 c0       	rjmp	.+16     	; 0xb8c <updateHistory+0x9c>
     b7c:	8c 81       	ldd	r24, Y+4	; 0x04
     b7e:	9d 81       	ldd	r25, Y+5	; 0x05
     b80:	ae 81       	ldd	r26, Y+6	; 0x06
     b82:	bf 81       	ldd	r27, Y+7	; 0x07
     b84:	88 83       	st	Y, r24
     b86:	99 83       	std	Y+1, r25	; 0x01
     b88:	aa 83       	std	Y+2, r26	; 0x02
     b8a:	bb 83       	std	Y+3, r27	; 0x03
     b8c:	31 96       	adiw	r30, 0x01	; 1
     b8e:	6c 5f       	subi	r22, 0xFC	; 252
     b90:	7f 4f       	sbci	r23, 0xFF	; 255
     b92:	24 96       	adiw	r28, 0x04	; 4
     b94:	e4 31       	cpi	r30, 0x14	; 20
     b96:	f1 05       	cpc	r31, r1
     b98:	29 f6       	brne	.-118    	; 0xb24 <updateHistory+0x34>
     b9a:	df 91       	pop	r29
     b9c:	cf 91       	pop	r28
     b9e:	1f 91       	pop	r17
     ba0:	0f 91       	pop	r16
     ba2:	ff 90       	pop	r15
     ba4:	ef 90       	pop	r14
     ba6:	df 90       	pop	r13
     ba8:	08 95       	ret

00000baa <sumPastError>:
     baa:	ff 92       	push	r15
     bac:	0f 93       	push	r16
     bae:	1f 93       	push	r17
     bb0:	cf 93       	push	r28
     bb2:	df 93       	push	r29
     bb4:	f4 2e       	mov	r15, r20
     bb6:	0e 94 78 05 	call	0xaf0	; 0xaf0 <updateHistory>
     bba:	c3 ee       	ldi	r28, 0xE3	; 227
     bbc:	d1 e0       	ldi	r29, 0x01	; 1
     bbe:	0b e7       	ldi	r16, 0x7B	; 123
     bc0:	11 e0       	ldi	r17, 0x01	; 1
     bc2:	20 e0       	ldi	r18, 0x00	; 0
     bc4:	30 e0       	ldi	r19, 0x00	; 0
     bc6:	b9 01       	movw	r22, r18
     bc8:	88 27       	eor	r24, r24
     bca:	77 fd       	sbrc	r23, 7
     bcc:	80 95       	com	r24
     bce:	98 2f       	mov	r25, r24
     bd0:	2c e4       	ldi	r18, 0x4C	; 76
     bd2:	f2 16       	cp	r15, r18
     bd4:	39 f4       	brne	.+14     	; 0xbe4 <sumPastError+0x3a>
     bd6:	0e 94 3c 10 	call	0x2078	; 0x2078 <__floatsisf>
     bda:	28 81       	ld	r18, Y
     bdc:	39 81       	ldd	r19, Y+1	; 0x01
     bde:	4a 81       	ldd	r20, Y+2	; 0x02
     be0:	5b 81       	ldd	r21, Y+3	; 0x03
     be2:	07 c0       	rjmp	.+14     	; 0xbf2 <sumPastError+0x48>
     be4:	0e 94 3c 10 	call	0x2078	; 0x2078 <__floatsisf>
     be8:	f8 01       	movw	r30, r16
     bea:	20 81       	ld	r18, Z
     bec:	31 81       	ldd	r19, Z+1	; 0x01
     bee:	42 81       	ldd	r20, Z+2	; 0x02
     bf0:	53 81       	ldd	r21, Z+3	; 0x03
     bf2:	0e 94 db 0e 	call	0x1db6	; 0x1db6 <__addsf3>
     bf6:	0e 94 09 10 	call	0x2012	; 0x2012 <__fixsfsi>
     bfa:	9b 01       	movw	r18, r22
     bfc:	24 96       	adiw	r28, 0x04	; 4
     bfe:	0c 5f       	subi	r16, 0xFC	; 252
     c00:	1f 4f       	sbci	r17, 0xFF	; 255
     c02:	f2 e0       	ldi	r31, 0x02	; 2
     c04:	c3 33       	cpi	r28, 0x33	; 51
     c06:	df 07       	cpc	r29, r31
     c08:	f1 f6       	brne	.-68     	; 0xbc6 <sumPastError+0x1c>
     c0a:	cb 01       	movw	r24, r22
     c0c:	df 91       	pop	r29
     c0e:	cf 91       	pop	r28
     c10:	1f 91       	pop	r17
     c12:	0f 91       	pop	r16
     c14:	ff 90       	pop	r15
     c16:	08 95       	ret

00000c18 <calcDifference>:
     c18:	9c 01       	movw	r18, r24
     c1a:	44 27       	eor	r20, r20
     c1c:	37 fd       	sbrc	r19, 7
     c1e:	40 95       	com	r20
     c20:	54 2f       	mov	r21, r20
     c22:	6c 34       	cpi	r22, 0x4C	; 76
     c24:	91 f4       	brne	.+36     	; 0xc4a <calcDifference+0x32>
     c26:	ca 01       	movw	r24, r20
     c28:	b9 01       	movw	r22, r18
     c2a:	0e 94 3c 10 	call	0x2078	; 0x2078 <__floatsisf>
     c2e:	20 91 2f 02 	lds	r18, 0x022F
     c32:	30 91 30 02 	lds	r19, 0x0230
     c36:	40 91 31 02 	lds	r20, 0x0231
     c3a:	50 91 32 02 	lds	r21, 0x0232
     c3e:	0e 94 da 0e 	call	0x1db4	; 0x1db4 <__subsf3>
     c42:	0e 94 09 10 	call	0x2012	; 0x2012 <__fixsfsi>
     c46:	cb 01       	movw	r24, r22
     c48:	08 95       	ret
     c4a:	ca 01       	movw	r24, r20
     c4c:	b9 01       	movw	r22, r18
     c4e:	0e 94 3c 10 	call	0x2078	; 0x2078 <__floatsisf>
     c52:	20 91 c7 01 	lds	r18, 0x01C7
     c56:	30 91 c8 01 	lds	r19, 0x01C8
     c5a:	40 91 c9 01 	lds	r20, 0x01C9
     c5e:	50 91 ca 01 	lds	r21, 0x01CA
     c62:	0e 94 da 0e 	call	0x1db4	; 0x1db4 <__subsf3>
     c66:	0e 94 09 10 	call	0x2012	; 0x2012 <__fixsfsi>
     c6a:	cb 01       	movw	r24, r22
     c6c:	08 95       	ret

00000c6e <calcPID>:
     c6e:	6f 92       	push	r6
     c70:	7f 92       	push	r7
     c72:	8f 92       	push	r8
     c74:	9f 92       	push	r9
     c76:	af 92       	push	r10
     c78:	bf 92       	push	r11
     c7a:	cf 92       	push	r12
     c7c:	df 92       	push	r13
     c7e:	ef 92       	push	r14
     c80:	ff 92       	push	r15
     c82:	0f 93       	push	r16
     c84:	1f 93       	push	r17
     c86:	cf 93       	push	r28
     c88:	df 93       	push	r29
     c8a:	eb 01       	movw	r28, r22
     c8c:	8a 01       	movw	r16, r20
     c8e:	88 34       	cpi	r24, 0x48	; 72
     c90:	71 f0       	breq	.+28     	; 0xcae <calcPID+0x40>
     c92:	8c 34       	cpi	r24, 0x4C	; 76
     c94:	09 f0       	breq	.+2      	; 0xc98 <calcPID+0x2a>
     c96:	57 c0       	rjmp	.+174    	; 0xd46 <calcPID+0xd8>
     c98:	cb 01       	movw	r24, r22
     c9a:	ba 01       	movw	r22, r20
     c9c:	4c e4       	ldi	r20, 0x4C	; 76
     c9e:	0e 94 d5 05 	call	0xbaa	; 0xbaa <sumPastError>
     ca2:	7c 01       	movw	r14, r24
     ca4:	c8 01       	movw	r24, r16
     ca6:	6c e4       	ldi	r22, 0x4C	; 76
     ca8:	0e 94 0c 06 	call	0xc18	; 0xc18 <calcDifference>
     cac:	0a c0       	rjmp	.+20     	; 0xcc2 <calcPID+0x54>
     cae:	cb 01       	movw	r24, r22
     cb0:	ba 01       	movw	r22, r20
     cb2:	48 e4       	ldi	r20, 0x48	; 72
     cb4:	0e 94 d5 05 	call	0xbaa	; 0xbaa <sumPastError>
     cb8:	7c 01       	movw	r14, r24
     cba:	c8 01       	movw	r24, r16
     cbc:	68 e4       	ldi	r22, 0x48	; 72
     cbe:	0e 94 0c 06 	call	0xc18	; 0xc18 <calcDifference>
     cc2:	5c 01       	movw	r10, r24
     cc4:	c0 1b       	sub	r28, r16
     cc6:	d1 0b       	sbc	r29, r17
     cc8:	be 01       	movw	r22, r28
     cca:	88 27       	eor	r24, r24
     ccc:	77 fd       	sbrc	r23, 7
     cce:	80 95       	com	r24
     cd0:	98 2f       	mov	r25, r24
     cd2:	0e 94 3c 10 	call	0x2078	; 0x2078 <__floatsisf>
     cd6:	20 e0       	ldi	r18, 0x00	; 0
     cd8:	30 e0       	ldi	r19, 0x00	; 0
     cda:	46 e8       	ldi	r20, 0x86	; 134
     cdc:	52 e4       	ldi	r21, 0x42	; 66
     cde:	0e 94 f4 10 	call	0x21e8	; 0x21e8 <__mulsf3>
     ce2:	3b 01       	movw	r6, r22
     ce4:	4c 01       	movw	r8, r24
     ce6:	00 27       	eor	r16, r16
     ce8:	f7 fc       	sbrc	r15, 7
     cea:	00 95       	com	r16
     cec:	10 2f       	mov	r17, r16
     cee:	c8 01       	movw	r24, r16
     cf0:	b7 01       	movw	r22, r14
     cf2:	0e 94 3c 10 	call	0x2078	; 0x2078 <__floatsisf>
     cf6:	20 e0       	ldi	r18, 0x00	; 0
     cf8:	30 e0       	ldi	r19, 0x00	; 0
     cfa:	40 e8       	ldi	r20, 0x80	; 128
     cfc:	50 e4       	ldi	r21, 0x40	; 64
     cfe:	0e 94 f4 10 	call	0x21e8	; 0x21e8 <__mulsf3>
     d02:	9b 01       	movw	r18, r22
     d04:	ac 01       	movw	r20, r24
     d06:	c4 01       	movw	r24, r8
     d08:	b3 01       	movw	r22, r6
     d0a:	0e 94 db 0e 	call	0x1db6	; 0x1db6 <__addsf3>
     d0e:	7b 01       	movw	r14, r22
     d10:	8c 01       	movw	r16, r24
     d12:	cc 24       	eor	r12, r12
     d14:	b7 fc       	sbrc	r11, 7
     d16:	c0 94       	com	r12
     d18:	dc 2c       	mov	r13, r12
     d1a:	c6 01       	movw	r24, r12
     d1c:	b5 01       	movw	r22, r10
     d1e:	0e 94 3c 10 	call	0x2078	; 0x2078 <__floatsisf>
     d22:	20 e0       	ldi	r18, 0x00	; 0
     d24:	30 e0       	ldi	r19, 0x00	; 0
     d26:	40 ee       	ldi	r20, 0xE0	; 224
     d28:	5f e3       	ldi	r21, 0x3F	; 63
     d2a:	0e 94 f4 10 	call	0x21e8	; 0x21e8 <__mulsf3>
     d2e:	9b 01       	movw	r18, r22
     d30:	ac 01       	movw	r20, r24
     d32:	c8 01       	movw	r24, r16
     d34:	b7 01       	movw	r22, r14
     d36:	0e 94 db 0e 	call	0x1db6	; 0x1db6 <__addsf3>
     d3a:	0e 94 09 10 	call	0x2012	; 0x2012 <__fixsfsi>
     d3e:	70 93 34 02 	sts	0x0234, r23
     d42:	60 93 33 02 	sts	0x0233, r22
     d46:	80 91 33 02 	lds	r24, 0x0233
     d4a:	90 91 34 02 	lds	r25, 0x0234
     d4e:	df 91       	pop	r29
     d50:	cf 91       	pop	r28
     d52:	1f 91       	pop	r17
     d54:	0f 91       	pop	r16
     d56:	ff 90       	pop	r15
     d58:	ef 90       	pop	r14
     d5a:	df 90       	pop	r13
     d5c:	cf 90       	pop	r12
     d5e:	bf 90       	pop	r11
     d60:	af 90       	pop	r10
     d62:	9f 90       	pop	r9
     d64:	8f 90       	pop	r8
     d66:	7f 90       	pop	r7
     d68:	6f 90       	pop	r6
     d6a:	08 95       	ret

00000d6c <encCount>:
     d6c:	cf 93       	push	r28
     d6e:	df 93       	push	r29
     d70:	00 97       	sbiw	r24, 0x00	; 0
     d72:	b1 f4       	brne	.+44     	; 0xda0 <encCount+0x34>
     d74:	80 91 28 00 	lds	r24, 0x0028
     d78:	8f 7d       	andi	r24, 0xDF	; 223
     d7a:	80 93 28 00 	sts	0x0028, r24
     d7e:	80 e6       	ldi	r24, 0x60	; 96
     d80:	0e 94 46 08 	call	0x108c	; 0x108c <spiTransceive>
     d84:	80 e0       	ldi	r24, 0x00	; 0
     d86:	0e 94 46 08 	call	0x108c	; 0x108c <spiTransceive>
     d8a:	c8 2f       	mov	r28, r24
     d8c:	d0 e0       	ldi	r29, 0x00	; 0
     d8e:	80 e0       	ldi	r24, 0x00	; 0
     d90:	0e 94 46 08 	call	0x108c	; 0x108c <spiTransceive>
     d94:	68 2f       	mov	r22, r24
     d96:	70 e0       	ldi	r23, 0x00	; 0
     d98:	80 91 28 00 	lds	r24, 0x0028
     d9c:	80 62       	ori	r24, 0x20	; 32
     d9e:	1c c0       	rjmp	.+56     	; 0xdd8 <encCount+0x6c>
     da0:	01 97       	sbiw	r24, 0x01	; 1
     da2:	29 f0       	breq	.+10     	; 0xdae <encCount+0x42>
     da4:	c0 e0       	ldi	r28, 0x00	; 0
     da6:	d0 e0       	ldi	r29, 0x00	; 0
     da8:	60 e0       	ldi	r22, 0x00	; 0
     daa:	70 e0       	ldi	r23, 0x00	; 0
     dac:	17 c0       	rjmp	.+46     	; 0xddc <encCount+0x70>
     dae:	80 91 28 00 	lds	r24, 0x0028
     db2:	8f 7e       	andi	r24, 0xEF	; 239
     db4:	80 93 28 00 	sts	0x0028, r24
     db8:	80 e6       	ldi	r24, 0x60	; 96
     dba:	0e 94 46 08 	call	0x108c	; 0x108c <spiTransceive>
     dbe:	80 e0       	ldi	r24, 0x00	; 0
     dc0:	0e 94 46 08 	call	0x108c	; 0x108c <spiTransceive>
     dc4:	c8 2f       	mov	r28, r24
     dc6:	d0 e0       	ldi	r29, 0x00	; 0
     dc8:	80 e0       	ldi	r24, 0x00	; 0
     dca:	0e 94 46 08 	call	0x108c	; 0x108c <spiTransceive>
     dce:	68 2f       	mov	r22, r24
     dd0:	70 e0       	ldi	r23, 0x00	; 0
     dd2:	80 91 28 00 	lds	r24, 0x0028
     dd6:	80 61       	ori	r24, 0x10	; 16
     dd8:	80 93 28 00 	sts	0x0028, r24
     ddc:	3c 2f       	mov	r19, r28
     dde:	22 27       	eor	r18, r18
     de0:	44 27       	eor	r20, r20
     de2:	37 fd       	sbrc	r19, 7
     de4:	40 95       	com	r20
     de6:	54 2f       	mov	r21, r20
     de8:	cb 01       	movw	r24, r22
     dea:	aa 27       	eor	r26, r26
     dec:	97 fd       	sbrc	r25, 7
     dee:	a0 95       	com	r26
     df0:	ba 2f       	mov	r27, r26
     df2:	28 2b       	or	r18, r24
     df4:	39 2b       	or	r19, r25
     df6:	4a 2b       	or	r20, r26
     df8:	5b 2b       	or	r21, r27
     dfa:	b9 01       	movw	r22, r18
     dfc:	ca 01       	movw	r24, r20
     dfe:	df 91       	pop	r29
     e00:	cf 91       	pop	r28
     e02:	08 95       	ret

00000e04 <resetEncCount>:
     e04:	00 97       	sbiw	r24, 0x00	; 0
     e06:	71 f4       	brne	.+28     	; 0xe24 <resetEncCount+0x20>
     e08:	80 91 28 00 	lds	r24, 0x0028
     e0c:	8f 7d       	andi	r24, 0xDF	; 223
     e0e:	80 93 28 00 	sts	0x0028, r24
     e12:	80 e2       	ldi	r24, 0x20	; 32
     e14:	0e 94 46 08 	call	0x108c	; 0x108c <spiTransceive>
     e18:	80 91 28 00 	lds	r24, 0x0028
     e1c:	80 62       	ori	r24, 0x20	; 32
     e1e:	80 93 28 00 	sts	0x0028, r24
     e22:	08 95       	ret
     e24:	01 97       	sbiw	r24, 0x01	; 1
     e26:	69 f4       	brne	.+26     	; 0xe42 <resetEncCount+0x3e>
     e28:	80 91 28 00 	lds	r24, 0x0028
     e2c:	8f 7e       	andi	r24, 0xEF	; 239
     e2e:	80 93 28 00 	sts	0x0028, r24
     e32:	80 e2       	ldi	r24, 0x20	; 32
     e34:	0e 94 46 08 	call	0x108c	; 0x108c <spiTransceive>
     e38:	80 91 28 00 	lds	r24, 0x0028
     e3c:	80 61       	ori	r24, 0x10	; 16
     e3e:	80 93 28 00 	sts	0x0028, r24
     e42:	08 95       	ret

00000e44 <encInit>:
     e44:	9c 01       	movw	r18, r24
     e46:	80 91 27 00 	lds	r24, 0x0027
     e4a:	80 62       	ori	r24, 0x20	; 32
     e4c:	80 93 27 00 	sts	0x0027, r24
     e50:	80 91 27 00 	lds	r24, 0x0027
     e54:	80 61       	ori	r24, 0x10	; 16
     e56:	80 93 27 00 	sts	0x0027, r24
     e5a:	80 91 28 00 	lds	r24, 0x0028
     e5e:	80 62       	ori	r24, 0x20	; 32
     e60:	80 93 28 00 	sts	0x0028, r24
     e64:	80 91 28 00 	lds	r24, 0x0028
     e68:	80 61       	ori	r24, 0x10	; 16
     e6a:	80 93 28 00 	sts	0x0028, r24
     e6e:	21 15       	cp	r18, r1
     e70:	31 05       	cpc	r19, r1
     e72:	09 f5       	brne	.+66     	; 0xeb6 <encInit+0x72>
     e74:	80 91 28 00 	lds	r24, 0x0028
     e78:	8f 7d       	andi	r24, 0xDF	; 223
     e7a:	80 93 28 00 	sts	0x0028, r24
     e7e:	88 e8       	ldi	r24, 0x88	; 136
     e80:	0e 94 46 08 	call	0x108c	; 0x108c <spiTransceive>
     e84:	83 e0       	ldi	r24, 0x03	; 3
     e86:	0e 94 46 08 	call	0x108c	; 0x108c <spiTransceive>
     e8a:	80 91 28 00 	lds	r24, 0x0028
     e8e:	80 62       	ori	r24, 0x20	; 32
     e90:	80 93 28 00 	sts	0x0028, r24
     e94:	80 91 28 00 	lds	r24, 0x0028
     e98:	8f 7d       	andi	r24, 0xDF	; 223
     e9a:	80 93 28 00 	sts	0x0028, r24
     e9e:	80 e9       	ldi	r24, 0x90	; 144
     ea0:	0e 94 46 08 	call	0x108c	; 0x108c <spiTransceive>
     ea4:	82 e0       	ldi	r24, 0x02	; 2
     ea6:	0e 94 46 08 	call	0x108c	; 0x108c <spiTransceive>
     eaa:	80 91 28 00 	lds	r24, 0x0028
     eae:	80 62       	ori	r24, 0x20	; 32
     eb0:	80 93 28 00 	sts	0x0028, r24
     eb4:	08 95       	ret
     eb6:	21 30       	cpi	r18, 0x01	; 1
     eb8:	31 05       	cpc	r19, r1
     eba:	01 f5       	brne	.+64     	; 0xefc <encInit+0xb8>
     ebc:	80 91 28 00 	lds	r24, 0x0028
     ec0:	8f 7e       	andi	r24, 0xEF	; 239
     ec2:	80 93 28 00 	sts	0x0028, r24
     ec6:	88 e8       	ldi	r24, 0x88	; 136
     ec8:	0e 94 46 08 	call	0x108c	; 0x108c <spiTransceive>
     ecc:	83 e0       	ldi	r24, 0x03	; 3
     ece:	0e 94 46 08 	call	0x108c	; 0x108c <spiTransceive>
     ed2:	80 91 28 00 	lds	r24, 0x0028
     ed6:	80 61       	ori	r24, 0x10	; 16
     ed8:	80 93 28 00 	sts	0x0028, r24
     edc:	80 91 28 00 	lds	r24, 0x0028
     ee0:	8f 7e       	andi	r24, 0xEF	; 239
     ee2:	80 93 28 00 	sts	0x0028, r24
     ee6:	80 e9       	ldi	r24, 0x90	; 144
     ee8:	0e 94 46 08 	call	0x108c	; 0x108c <spiTransceive>
     eec:	82 e0       	ldi	r24, 0x02	; 2
     eee:	0e 94 46 08 	call	0x108c	; 0x108c <spiTransceive>
     ef2:	80 91 28 00 	lds	r24, 0x0028
     ef6:	80 61       	ori	r24, 0x10	; 16
     ef8:	80 93 28 00 	sts	0x0028, r24
     efc:	08 95       	ret

00000efe <getAccel>:
     efe:	0f 93       	push	r16
     f00:	1f 93       	push	r17
     f02:	18 2f       	mov	r17, r24
     f04:	80 91 2a 00 	lds	r24, 0x002A
     f08:	80 68       	ori	r24, 0x80	; 128
     f0a:	80 93 2a 00 	sts	0x002A, r24
     f0e:	80 91 2b 00 	lds	r24, 0x002B
     f12:	80 68       	ori	r24, 0x80	; 128
     f14:	80 93 2b 00 	sts	0x002B, r24
     f18:	8c b5       	in	r24, 0x2c	; 44
     f1a:	83 60       	ori	r24, 0x03	; 3
     f1c:	8c bd       	out	0x2c, r24	; 44
     f1e:	80 91 2b 00 	lds	r24, 0x002B
     f22:	8f 77       	andi	r24, 0x7F	; 127
     f24:	80 93 2b 00 	sts	0x002B, r24
     f28:	86 e0       	ldi	r24, 0x06	; 6
     f2a:	0e 94 46 08 	call	0x108c	; 0x108c <spiTransceive>
     f2e:	81 2f       	mov	r24, r17
     f30:	82 95       	swap	r24
     f32:	88 0f       	add	r24, r24
     f34:	88 0f       	add	r24, r24
     f36:	80 7c       	andi	r24, 0xC0	; 192
     f38:	0e 94 46 08 	call	0x108c	; 0x108c <spiTransceive>
     f3c:	08 2f       	mov	r16, r24
     f3e:	10 e0       	ldi	r17, 0x00	; 0
     f40:	80 e0       	ldi	r24, 0x00	; 0
     f42:	0e 94 46 08 	call	0x108c	; 0x108c <spiTransceive>
     f46:	90 91 2b 00 	lds	r25, 0x002B
     f4a:	90 68       	ori	r25, 0x80	; 128
     f4c:	90 93 2b 00 	sts	0x002B, r25
     f50:	0f 70       	andi	r16, 0x0F	; 15
     f52:	10 70       	andi	r17, 0x00	; 0
     f54:	10 2f       	mov	r17, r16
     f56:	00 27       	eor	r16, r16
     f58:	08 0f       	add	r16, r24
     f5a:	11 1d       	adc	r17, r1
     f5c:	20 91 34 01 	lds	r18, 0x0134
     f60:	30 91 35 01 	lds	r19, 0x0135
     f64:	02 17       	cp	r16, r18
     f66:	13 07       	cpc	r17, r19
     f68:	74 f0       	brlt	.+28     	; 0xf86 <getAccel+0x88>
     f6a:	02 1b       	sub	r16, r18
     f6c:	13 0b       	sbc	r17, r19
     f6e:	b8 01       	movw	r22, r16
     f70:	88 27       	eor	r24, r24
     f72:	77 fd       	sbrc	r23, 7
     f74:	80 95       	com	r24
     f76:	98 2f       	mov	r25, r24
     f78:	0e 94 3c 10 	call	0x2078	; 0x2078 <__floatsisf>
     f7c:	2e ea       	ldi	r18, 0xAE	; 174
     f7e:	37 e4       	ldi	r19, 0x47	; 71
     f80:	41 e6       	ldi	r20, 0x61	; 97
     f82:	5e e3       	ldi	r21, 0x3E	; 62
     f84:	0d c0       	rjmp	.+26     	; 0xfa0 <getAccel+0xa2>
     f86:	20 1b       	sub	r18, r16
     f88:	31 0b       	sbc	r19, r17
     f8a:	b9 01       	movw	r22, r18
     f8c:	88 27       	eor	r24, r24
     f8e:	77 fd       	sbrc	r23, 7
     f90:	80 95       	com	r24
     f92:	98 2f       	mov	r25, r24
     f94:	0e 94 3c 10 	call	0x2078	; 0x2078 <__floatsisf>
     f98:	2e ea       	ldi	r18, 0xAE	; 174
     f9a:	37 e4       	ldi	r19, 0x47	; 71
     f9c:	41 e6       	ldi	r20, 0x61	; 97
     f9e:	5e eb       	ldi	r21, 0xBE	; 190
     fa0:	0e 94 f4 10 	call	0x21e8	; 0x21e8 <__mulsf3>
     fa4:	0e 94 09 10 	call	0x2012	; 0x2012 <__fixsfsi>
     fa8:	97 2f       	mov	r25, r23
     faa:	8c b5       	in	r24, 0x2c	; 44
     fac:	8d 7f       	andi	r24, 0xFD	; 253
     fae:	8c bd       	out	0x2c, r24	; 44
     fb0:	86 2f       	mov	r24, r22
     fb2:	1f 91       	pop	r17
     fb4:	0f 91       	pop	r16
     fb6:	08 95       	ret

00000fb8 <IRDist>:
     fb8:	0f 93       	push	r16
     fba:	1f 93       	push	r17
     fbc:	8c 01       	movw	r16, r24
     fbe:	0e 94 f0 04 	call	0x9e0	; 0x9e0 <changeADC>
     fc2:	c8 01       	movw	r24, r16
     fc4:	0e 94 d4 04 	call	0x9a8	; 0x9a8 <getADC>
     fc8:	a0 e0       	ldi	r26, 0x00	; 0
     fca:	b0 e0       	ldi	r27, 0x00	; 0
     fcc:	bc 01       	movw	r22, r24
     fce:	cd 01       	movw	r24, r26
     fd0:	0e 94 3a 10 	call	0x2074	; 0x2074 <__floatunsisf>
     fd4:	20 e0       	ldi	r18, 0x00	; 0
     fd6:	30 e0       	ldi	r19, 0x00	; 0
     fd8:	40 ea       	ldi	r20, 0xA0	; 160
     fda:	5b e3       	ldi	r21, 0x3B	; 59
     fdc:	0e 94 f4 10 	call	0x21e8	; 0x21e8 <__mulsf3>
     fe0:	2d ec       	ldi	r18, 0xCD	; 205
     fe2:	3c ec       	ldi	r19, 0xCC	; 204
     fe4:	4c e8       	ldi	r20, 0x8C	; 140
     fe6:	5f eb       	ldi	r21, 0xBF	; 191
     fe8:	0e 94 57 11 	call	0x22ae	; 0x22ae <pow>
     fec:	9b 01       	movw	r18, r22
     fee:	ac 01       	movw	r20, r24
     ff0:	ca 01       	movw	r24, r20
     ff2:	b9 01       	movw	r22, r18
     ff4:	20 e0       	ldi	r18, 0x00	; 0
     ff6:	30 e0       	ldi	r19, 0x00	; 0
     ff8:	42 e8       	ldi	r20, 0x82	; 130
     ffa:	52 e4       	ldi	r21, 0x42	; 66
     ffc:	0e 94 f4 10 	call	0x21e8	; 0x21e8 <__mulsf3>
    1000:	23 e3       	ldi	r18, 0x33	; 51
    1002:	33 e3       	ldi	r19, 0x33	; 51
    1004:	43 e3       	ldi	r20, 0x33	; 51
    1006:	50 e4       	ldi	r21, 0x40	; 64
    1008:	0e 94 f4 10 	call	0x21e8	; 0x21e8 <__mulsf3>
    100c:	0e 94 09 10 	call	0x2012	; 0x2012 <__fixsfsi>
    1010:	cb 01       	movw	r24, r22
    1012:	1f 91       	pop	r17
    1014:	0f 91       	pop	r16
    1016:	08 95       	ret

00001018 <initSPI>:
    1018:	80 eb       	ldi	r24, 0xB0	; 176
    101a:	84 b9       	out	0x04, r24	; 4
    101c:	81 e5       	ldi	r24, 0x51	; 81
    101e:	8c bd       	out	0x2c, r24	; 44
    1020:	87 b1       	in	r24, 0x07	; 7
    1022:	8f 67       	ori	r24, 0x7F	; 127
    1024:	87 b9       	out	0x07, r24	; 7
    1026:	80 91 2a 00 	lds	r24, 0x002A
    102a:	80 61       	ori	r24, 0x10	; 16
    102c:	80 93 2a 00 	sts	0x002A, r24
    1030:	80 91 2b 00 	lds	r24, 0x002B
    1034:	8f 7e       	andi	r24, 0xEF	; 239
    1036:	80 93 2b 00 	sts	0x002B, r24
    103a:	80 91 2b 00 	lds	r24, 0x002B
    103e:	80 61       	ori	r24, 0x10	; 16
    1040:	80 93 2b 00 	sts	0x002B, r24
    1044:	80 91 2a 00 	lds	r24, 0x002A
    1048:	80 68       	ori	r24, 0x80	; 128
    104a:	80 93 2a 00 	sts	0x002A, r24
    104e:	80 91 2b 00 	lds	r24, 0x002B
    1052:	8f 77       	andi	r24, 0x7F	; 127
    1054:	80 93 2b 00 	sts	0x002B, r24
    1058:	80 91 2b 00 	lds	r24, 0x002B
    105c:	80 68       	ori	r24, 0x80	; 128
    105e:	80 93 2b 00 	sts	0x002B, r24
    1062:	80 91 27 00 	lds	r24, 0x0027
    1066:	80 62       	ori	r24, 0x20	; 32
    1068:	80 93 27 00 	sts	0x0027, r24
    106c:	80 91 27 00 	lds	r24, 0x0027
    1070:	80 61       	ori	r24, 0x10	; 16
    1072:	80 93 27 00 	sts	0x0027, r24
    1076:	80 91 28 00 	lds	r24, 0x0028
    107a:	80 62       	ori	r24, 0x20	; 32
    107c:	80 93 28 00 	sts	0x0028, r24
    1080:	80 91 28 00 	lds	r24, 0x0028
    1084:	80 61       	ori	r24, 0x10	; 16
    1086:	80 93 28 00 	sts	0x0028, r24
    108a:	08 95       	ret

0000108c <spiTransceive>:
    108c:	8e bd       	out	0x2e, r24	; 46
    108e:	0d b4       	in	r0, 0x2d	; 45
    1090:	07 fe       	sbrs	r0, 7
    1092:	fd cf       	rjmp	.-6      	; 0x108e <spiTransceive+0x2>
    1094:	8e b5       	in	r24, 0x2e	; 46
    1096:	08 95       	ret

00001098 <debugUSARTInit>:
    1098:	60 30       	cpi	r22, 0x00	; 0
    109a:	22 ec       	ldi	r18, 0xC2	; 194
    109c:	72 07       	cpc	r23, r18
    109e:	21 e0       	ldi	r18, 0x01	; 1
    10a0:	82 07       	cpc	r24, r18
    10a2:	20 e0       	ldi	r18, 0x00	; 0
    10a4:	92 07       	cpc	r25, r18
    10a6:	41 f0       	breq	.+16     	; 0x10b8 <debugUSARTInit+0x20>
    10a8:	60 58       	subi	r22, 0x80	; 128
    10aa:	75 42       	sbci	r23, 0x25	; 37
    10ac:	80 40       	sbci	r24, 0x00	; 0
    10ae:	90 40       	sbci	r25, 0x00	; 0
    10b0:	19 f4       	brne	.+6      	; 0x10b8 <debugUSARTInit+0x20>
    10b2:	87 e7       	ldi	r24, 0x77	; 119
    10b4:	90 e0       	ldi	r25, 0x00	; 0
    10b6:	02 c0       	rjmp	.+4      	; 0x10bc <debugUSARTInit+0x24>
    10b8:	89 e0       	ldi	r24, 0x09	; 9
    10ba:	90 e0       	ldi	r25, 0x00	; 0
    10bc:	90 93 cd 00 	sts	0x00CD, r25
    10c0:	80 93 cc 00 	sts	0x00CC, r24
    10c4:	80 91 c9 00 	lds	r24, 0x00C9
    10c8:	88 61       	ori	r24, 0x18	; 24
    10ca:	80 93 c9 00 	sts	0x00C9, r24
    10ce:	80 91 ca 00 	lds	r24, 0x00CA
    10d2:	86 60       	ori	r24, 0x06	; 6
    10d4:	80 93 ca 00 	sts	0x00CA, r24
    10d8:	08 95       	ret

000010da <putCharDebug>:
    10da:	98 2f       	mov	r25, r24
    10dc:	02 c0       	rjmp	.+4      	; 0x10e2 <putCharDebug+0x8>
    10de:	80 91 ce 00 	lds	r24, 0x00CE
    10e2:	80 91 c8 00 	lds	r24, 0x00C8
    10e6:	87 fd       	sbrc	r24, 7
    10e8:	fa cf       	rjmp	.-12     	; 0x10de <putCharDebug+0x4>
    10ea:	90 93 ce 00 	sts	0x00CE, r25
    10ee:	80 91 c8 00 	lds	r24, 0x00C8
    10f2:	85 ff       	sbrs	r24, 5
    10f4:	fc cf       	rjmp	.-8      	; 0x10ee <putCharDebug+0x14>
    10f6:	08 95       	ret

000010f8 <getCharDebug>:
    10f8:	80 91 c8 00 	lds	r24, 0x00C8
    10fc:	87 ff       	sbrs	r24, 7
    10fe:	fc cf       	rjmp	.-8      	; 0x10f8 <getCharDebug>
    1100:	80 91 ce 00 	lds	r24, 0x00CE
    1104:	08 95       	ret

00001106 <moveArm>:
    1106:	9c 01       	movw	r18, r24
    1108:	97 fd       	sbrc	r25, 7
    110a:	08 c0       	rjmp	.+16     	; 0x111c <moveArm+0x16>
    110c:	83 e0       	ldi	r24, 0x03	; 3
    110e:	90 e0       	ldi	r25, 0x00	; 0
    1110:	b9 01       	movw	r22, r18
    1112:	0e 94 f4 04 	call	0x9e8	; 0x9e8 <setDAC>
    1116:	82 e0       	ldi	r24, 0x02	; 2
    1118:	90 e0       	ldi	r25, 0x00	; 0
    111a:	0a c0       	rjmp	.+20     	; 0x1130 <moveArm+0x2a>
    111c:	66 27       	eor	r22, r22
    111e:	77 27       	eor	r23, r23
    1120:	68 1b       	sub	r22, r24
    1122:	79 0b       	sbc	r23, r25
    1124:	82 e0       	ldi	r24, 0x02	; 2
    1126:	90 e0       	ldi	r25, 0x00	; 0
    1128:	0e 94 f4 04 	call	0x9e8	; 0x9e8 <setDAC>
    112c:	83 e0       	ldi	r24, 0x03	; 3
    112e:	90 e0       	ldi	r25, 0x00	; 0
    1130:	60 e0       	ldi	r22, 0x00	; 0
    1132:	70 e0       	ldi	r23, 0x00	; 0
    1134:	0e 94 f4 04 	call	0x9e8	; 0x9e8 <setDAC>
    1138:	08 95       	ret

0000113a <initButtons>:
    113a:	80 91 28 00 	lds	r24, 0x0028
    113e:	87 7f       	andi	r24, 0xF7	; 247
    1140:	80 93 28 00 	sts	0x0028, r24
    1144:	80 91 28 00 	lds	r24, 0x0028
    1148:	8f 77       	andi	r24, 0x7F	; 127
    114a:	80 93 28 00 	sts	0x0028, r24
    114e:	80 91 27 00 	lds	r24, 0x0027
    1152:	8d 7f       	andi	r24, 0xFD	; 253
    1154:	80 93 27 00 	sts	0x0027, r24
    1158:	80 91 27 00 	lds	r24, 0x0027
    115c:	8b 7f       	andi	r24, 0xFB	; 251
    115e:	80 93 27 00 	sts	0x0027, r24
    1162:	80 91 27 00 	lds	r24, 0x0027
    1166:	87 7f       	andi	r24, 0xF7	; 247
    1168:	80 93 27 00 	sts	0x0027, r24
    116c:	80 91 27 00 	lds	r24, 0x0027
    1170:	8f 77       	andi	r24, 0x7F	; 127
    1172:	80 93 27 00 	sts	0x0027, r24
    1176:	80 91 26 00 	lds	r24, 0x0026
    117a:	87 7f       	andi	r24, 0xF7	; 247
    117c:	80 93 26 00 	sts	0x0026, r24
    1180:	80 91 26 00 	lds	r24, 0x0026
    1184:	8f 77       	andi	r24, 0x7F	; 127
    1186:	80 93 26 00 	sts	0x0026, r24
    118a:	08 95       	ret

0000118c <readButtons>:
    118c:	86 b1       	in	r24, 0x06	; 6
    118e:	8a 33       	cpi	r24, 0x3A	; 58
    1190:	19 f4       	brne	.+6      	; 0x1198 <readButtons+0xc>
    1192:	8a e3       	ldi	r24, 0x3A	; 58
    1194:	90 e0       	ldi	r25, 0x00	; 0
    1196:	05 c0       	rjmp	.+10     	; 0x11a2 <readButtons+0x16>
    1198:	86 b1       	in	r24, 0x06	; 6
    119a:	82 3b       	cpi	r24, 0xB2	; 178
    119c:	31 f4       	brne	.+12     	; 0x11aa <readButtons+0x1e>
    119e:	82 eb       	ldi	r24, 0xB2	; 178
    11a0:	90 e0       	ldi	r25, 0x00	; 0
    11a2:	90 93 5d 01 	sts	0x015D, r25
    11a6:	80 93 5c 01 	sts	0x015C, r24
    11aa:	80 91 5c 01 	lds	r24, 0x015C
    11ae:	90 91 5d 01 	lds	r25, 0x015D
    11b2:	8a 33       	cpi	r24, 0x3A	; 58
    11b4:	91 05       	cpc	r25, r1
    11b6:	21 f0       	breq	.+8      	; 0x11c0 <readButtons+0x34>
    11b8:	82 3b       	cpi	r24, 0xB2	; 178
    11ba:	91 05       	cpc	r25, r1
    11bc:	71 f4       	brne	.+28     	; 0x11da <readButtons+0x4e>
    11be:	07 c0       	rjmp	.+14     	; 0x11ce <readButtons+0x42>
    11c0:	80 e0       	ldi	r24, 0x00	; 0
    11c2:	90 e0       	ldi	r25, 0x00	; 0
    11c4:	60 e0       	ldi	r22, 0x00	; 0
    11c6:	70 e0       	ldi	r23, 0x00	; 0
    11c8:	0e 94 1a 0d 	call	0x1a34	; 0x1a34 <gotoAngles>
    11cc:	08 95       	ret
    11ce:	8a e5       	ldi	r24, 0x5A	; 90
    11d0:	90 e0       	ldi	r25, 0x00	; 0
    11d2:	60 e0       	ldi	r22, 0x00	; 0
    11d4:	70 e0       	ldi	r23, 0x00	; 0
    11d6:	0e 94 1a 0d 	call	0x1a34	; 0x1a34 <gotoAngles>
    11da:	08 95       	ret

000011dc <startTimer0>:
    11dc:	84 b5       	in	r24, 0x24	; 36
    11de:	82 60       	ori	r24, 0x02	; 2
    11e0:	84 bd       	out	0x24, r24	; 36
    11e2:	ee e6       	ldi	r30, 0x6E	; 110
    11e4:	f0 e0       	ldi	r31, 0x00	; 0
    11e6:	80 81       	ld	r24, Z
    11e8:	82 60       	ori	r24, 0x02	; 2
    11ea:	80 83       	st	Z, r24
    11ec:	85 b5       	in	r24, 0x25	; 37
    11ee:	85 60       	ori	r24, 0x05	; 5
    11f0:	85 bd       	out	0x25, r24	; 37
    11f2:	83 eb       	ldi	r24, 0xB3	; 179
    11f4:	87 bd       	out	0x27, r24	; 39
    11f6:	80 91 28 00 	lds	r24, 0x0028
    11fa:	8e 7f       	andi	r24, 0xFE	; 254
    11fc:	80 93 28 00 	sts	0x0028, r24
    1200:	80 91 27 00 	lds	r24, 0x0027
    1204:	81 60       	ori	r24, 0x01	; 1
    1206:	80 93 27 00 	sts	0x0027, r24
    120a:	80 91 26 00 	lds	r24, 0x0026
    120e:	8e 7f       	andi	r24, 0xFE	; 254
    1210:	80 93 26 00 	sts	0x0026, r24
    1214:	78 94       	sei
    1216:	08 95       	ret

00001218 <__vector_16>:
    1218:	1f 92       	push	r1
    121a:	0f 92       	push	r0
    121c:	0f b6       	in	r0, 0x3f	; 63
    121e:	0f 92       	push	r0
    1220:	11 24       	eor	r1, r1
    1222:	cf 92       	push	r12
    1224:	df 92       	push	r13
    1226:	ef 92       	push	r14
    1228:	ff 92       	push	r15
    122a:	0f 93       	push	r16
    122c:	1f 93       	push	r17
    122e:	2f 93       	push	r18
    1230:	3f 93       	push	r19
    1232:	4f 93       	push	r20
    1234:	5f 93       	push	r21
    1236:	6f 93       	push	r22
    1238:	7f 93       	push	r23
    123a:	8f 93       	push	r24
    123c:	9f 93       	push	r25
    123e:	af 93       	push	r26
    1240:	bf 93       	push	r27
    1242:	ef 93       	push	r30
    1244:	ff 93       	push	r31
    1246:	80 e0       	ldi	r24, 0x00	; 0
    1248:	90 e0       	ldi	r25, 0x00	; 0
    124a:	0e 94 7f 07 	call	0xefe	; 0xefe <getAccel>
    124e:	90 93 6c 01 	sts	0x016C, r25
    1252:	80 93 6b 01 	sts	0x016B, r24
    1256:	81 e0       	ldi	r24, 0x01	; 1
    1258:	90 e0       	ldi	r25, 0x00	; 0
    125a:	0e 94 7f 07 	call	0xefe	; 0xefe <getAccel>
    125e:	90 93 6e 01 	sts	0x016E, r25
    1262:	80 93 6d 01 	sts	0x016D, r24
    1266:	82 e0       	ldi	r24, 0x02	; 2
    1268:	90 e0       	ldi	r25, 0x00	; 0
    126a:	0e 94 7f 07 	call	0xefe	; 0xefe <getAccel>
    126e:	90 93 70 01 	sts	0x0170, r25
    1272:	80 93 6f 01 	sts	0x016F, r24
    1276:	82 e0       	ldi	r24, 0x02	; 2
    1278:	90 e0       	ldi	r25, 0x00	; 0
    127a:	0e 94 d4 04 	call	0x9a8	; 0x9a8 <getADC>
    127e:	90 93 68 01 	sts	0x0168, r25
    1282:	80 93 67 01 	sts	0x0167, r24
    1286:	83 e0       	ldi	r24, 0x03	; 3
    1288:	90 e0       	ldi	r25, 0x00	; 0
    128a:	0e 94 d4 04 	call	0x9a8	; 0x9a8 <getADC>
    128e:	90 93 6a 01 	sts	0x016A, r25
    1292:	80 93 69 01 	sts	0x0169, r24
    1296:	80 e0       	ldi	r24, 0x00	; 0
    1298:	90 e0       	ldi	r25, 0x00	; 0
    129a:	0e 94 22 07 	call	0xe44	; 0xe44 <encInit>
    129e:	81 e0       	ldi	r24, 0x01	; 1
    12a0:	90 e0       	ldi	r25, 0x00	; 0
    12a2:	0e 94 22 07 	call	0xe44	; 0xe44 <encInit>
    12a6:	80 e0       	ldi	r24, 0x00	; 0
    12a8:	90 e0       	ldi	r25, 0x00	; 0
    12aa:	0e 94 b6 06 	call	0xd6c	; 0xd6c <encCount>
    12ae:	70 93 62 01 	sts	0x0162, r23
    12b2:	60 93 61 01 	sts	0x0161, r22
    12b6:	88 27       	eor	r24, r24
    12b8:	77 fd       	sbrc	r23, 7
    12ba:	80 95       	com	r24
    12bc:	98 2f       	mov	r25, r24
    12be:	60 93 63 01 	sts	0x0163, r22
    12c2:	70 93 64 01 	sts	0x0164, r23
    12c6:	80 93 65 01 	sts	0x0165, r24
    12ca:	90 93 66 01 	sts	0x0166, r25
    12ce:	e0 90 67 01 	lds	r14, 0x0167
    12d2:	f0 90 68 01 	lds	r15, 0x0168
    12d6:	c7 01       	movw	r24, r14
    12d8:	0e 94 67 0a 	call	0x14ce	; 0x14ce <armLAngle>
    12dc:	6c 01       	movw	r12, r24
    12de:	00 91 69 01 	lds	r16, 0x0169
    12e2:	10 91 6a 01 	lds	r17, 0x016A
    12e6:	c8 01       	movw	r24, r16
    12e8:	0e 94 b5 0a 	call	0x156a	; 0x156a <armUAngle>
    12ec:	2d b7       	in	r18, 0x3d	; 61
    12ee:	3e b7       	in	r19, 0x3e	; 62
    12f0:	2a 50       	subi	r18, 0x0A	; 10
    12f2:	30 40       	sbci	r19, 0x00	; 0
    12f4:	0f b6       	in	r0, 0x3f	; 63
    12f6:	f8 94       	cli
    12f8:	3e bf       	out	0x3e, r19	; 62
    12fa:	0f be       	out	0x3f, r0	; 63
    12fc:	2d bf       	out	0x3d, r18	; 61
    12fe:	ed b7       	in	r30, 0x3d	; 61
    1300:	fe b7       	in	r31, 0x3e	; 62
    1302:	31 96       	adiw	r30, 0x01	; 1
    1304:	20 e0       	ldi	r18, 0x00	; 0
    1306:	31 e0       	ldi	r19, 0x01	; 1
    1308:	ad b7       	in	r26, 0x3d	; 61
    130a:	be b7       	in	r27, 0x3e	; 62
    130c:	12 96       	adiw	r26, 0x02	; 2
    130e:	3c 93       	st	X, r19
    1310:	2e 93       	st	-X, r18
    1312:	11 97       	sbiw	r26, 0x01	; 1
    1314:	f3 82       	std	Z+3, r15	; 0x03
    1316:	e2 82       	std	Z+2, r14	; 0x02
    1318:	d5 82       	std	Z+5, r13	; 0x05
    131a:	c4 82       	std	Z+4, r12	; 0x04
    131c:	17 83       	std	Z+7, r17	; 0x07
    131e:	06 83       	std	Z+6, r16	; 0x06
    1320:	91 87       	std	Z+9, r25	; 0x09
    1322:	80 87       	std	Z+8, r24	; 0x08
    1324:	0e 94 76 14 	call	0x28ec	; 0x28ec <printf>
    1328:	2d b7       	in	r18, 0x3d	; 61
    132a:	3e b7       	in	r19, 0x3e	; 62
    132c:	26 5f       	subi	r18, 0xF6	; 246
    132e:	3f 4f       	sbci	r19, 0xFF	; 255
    1330:	0f b6       	in	r0, 0x3f	; 63
    1332:	f8 94       	cli
    1334:	3e bf       	out	0x3e, r19	; 62
    1336:	0f be       	out	0x3f, r0	; 63
    1338:	2d bf       	out	0x3d, r18	; 61
    133a:	0e 94 c6 08 	call	0x118c	; 0x118c <readButtons>
    133e:	80 91 28 00 	lds	r24, 0x0028
    1342:	8e 7f       	andi	r24, 0xFE	; 254
    1344:	80 93 28 00 	sts	0x0028, r24
    1348:	80 91 5e 01 	lds	r24, 0x015E
    134c:	90 91 5f 01 	lds	r25, 0x015F
    1350:	01 96       	adiw	r24, 0x01	; 1
    1352:	90 93 5f 01 	sts	0x015F, r25
    1356:	80 93 5e 01 	sts	0x015E, r24
    135a:	80 91 28 00 	lds	r24, 0x0028
    135e:	81 60       	ori	r24, 0x01	; 1
    1360:	80 93 28 00 	sts	0x0028, r24
    1364:	ff 91       	pop	r31
    1366:	ef 91       	pop	r30
    1368:	bf 91       	pop	r27
    136a:	af 91       	pop	r26
    136c:	9f 91       	pop	r25
    136e:	8f 91       	pop	r24
    1370:	7f 91       	pop	r23
    1372:	6f 91       	pop	r22
    1374:	5f 91       	pop	r21
    1376:	4f 91       	pop	r20
    1378:	3f 91       	pop	r19
    137a:	2f 91       	pop	r18
    137c:	1f 91       	pop	r17
    137e:	0f 91       	pop	r16
    1380:	ff 90       	pop	r15
    1382:	ef 90       	pop	r14
    1384:	df 90       	pop	r13
    1386:	cf 90       	pop	r12
    1388:	0f 90       	pop	r0
    138a:	0f be       	out	0x3f, r0	; 63
    138c:	0f 90       	pop	r0
    138e:	1f 90       	pop	r1
    1390:	18 95       	reti

00001392 <main>:
    1392:	cf 92       	push	r12
    1394:	df 92       	push	r13
    1396:	ef 92       	push	r14
    1398:	ff 92       	push	r15
    139a:	0f 93       	push	r16
    139c:	1f 93       	push	r17
    139e:	0e 94 55 0e 	call	0x1caa	; 0x1caa <initRBELib>
    13a2:	60 e0       	ldi	r22, 0x00	; 0
    13a4:	72 ec       	ldi	r23, 0xC2	; 194
    13a6:	81 e0       	ldi	r24, 0x01	; 1
    13a8:	90 e0       	ldi	r25, 0x00	; 0
    13aa:	0e 94 4c 08 	call	0x1098	; 0x1098 <debugUSARTInit>
    13ae:	82 e0       	ldi	r24, 0x02	; 2
    13b0:	90 e0       	ldi	r25, 0x00	; 0
    13b2:	0e 94 bd 04 	call	0x97a	; 0x97a <initADC>
    13b6:	0e 94 0c 08 	call	0x1018	; 0x1018 <initSPI>
    13ba:	80 e0       	ldi	r24, 0x00	; 0
    13bc:	90 e0       	ldi	r25, 0x00	; 0
    13be:	0e 94 22 07 	call	0xe44	; 0xe44 <encInit>
    13c2:	80 e0       	ldi	r24, 0x00	; 0
    13c4:	90 e0       	ldi	r25, 0x00	; 0
    13c6:	0e 94 02 07 	call	0xe04	; 0xe04 <resetEncCount>
    13ca:	80 e0       	ldi	r24, 0x00	; 0
    13cc:	90 e0       	ldi	r25, 0x00	; 0
    13ce:	0e 94 22 07 	call	0xe44	; 0xe44 <encInit>
    13d2:	81 e0       	ldi	r24, 0x01	; 1
    13d4:	90 e0       	ldi	r25, 0x00	; 0
    13d6:	0e 94 22 07 	call	0xe44	; 0xe44 <encInit>
    13da:	81 e0       	ldi	r24, 0x01	; 1
    13dc:	90 e0       	ldi	r25, 0x00	; 0
    13de:	0e 94 02 07 	call	0xe04	; 0xe04 <resetEncCount>
    13e2:	81 e0       	ldi	r24, 0x01	; 1
    13e4:	90 e0       	ldi	r25, 0x00	; 0
    13e6:	0e 94 22 07 	call	0xe44	; 0xe44 <encInit>
    13ea:	0e 94 9d 08 	call	0x113a	; 0x113a <initButtons>
    13ee:	8c e4       	ldi	r24, 0x4C	; 76
    13f0:	40 e0       	ldi	r20, 0x00	; 0
    13f2:	50 e0       	ldi	r21, 0x00	; 0
    13f4:	66 e8       	ldi	r22, 0x86	; 134
    13f6:	72 e4       	ldi	r23, 0x42	; 66
    13f8:	00 e0       	ldi	r16, 0x00	; 0
    13fa:	10 e0       	ldi	r17, 0x00	; 0
    13fc:	20 e8       	ldi	r18, 0x80	; 128
    13fe:	30 e4       	ldi	r19, 0x40	; 64
    1400:	0f 2e       	mov	r0, r31
    1402:	f0 e0       	ldi	r31, 0x00	; 0
    1404:	cf 2e       	mov	r12, r31
    1406:	f0 e0       	ldi	r31, 0x00	; 0
    1408:	df 2e       	mov	r13, r31
    140a:	f0 ee       	ldi	r31, 0xE0	; 224
    140c:	ef 2e       	mov	r14, r31
    140e:	ff e3       	ldi	r31, 0x3F	; 63
    1410:	ff 2e       	mov	r15, r31
    1412:	f0 2d       	mov	r31, r0
    1414:	0e 94 30 05 	call	0xa60	; 0xa60 <setConst>
    1418:	88 e4       	ldi	r24, 0x48	; 72
    141a:	40 e0       	ldi	r20, 0x00	; 0
    141c:	50 e0       	ldi	r21, 0x00	; 0
    141e:	66 e8       	ldi	r22, 0x86	; 134
    1420:	72 e4       	ldi	r23, 0x42	; 66
    1422:	00 e0       	ldi	r16, 0x00	; 0
    1424:	10 e0       	ldi	r17, 0x00	; 0
    1426:	20 e8       	ldi	r18, 0x80	; 128
    1428:	30 e4       	ldi	r19, 0x40	; 64
    142a:	0e 94 30 05 	call	0xa60	; 0xa60 <setConst>
    142e:	0e 94 ee 08 	call	0x11dc	; 0x11dc <startTimer0>
    1432:	fd cf       	rjmp	.-6      	; 0x142e <main+0x9c>

00001434 <map>:
    1434:	2f 92       	push	r2
    1436:	3f 92       	push	r3
    1438:	4f 92       	push	r4
    143a:	5f 92       	push	r5
    143c:	6f 92       	push	r6
    143e:	7f 92       	push	r7
    1440:	8f 92       	push	r8
    1442:	9f 92       	push	r9
    1444:	af 92       	push	r10
    1446:	bf 92       	push	r11
    1448:	cf 92       	push	r12
    144a:	df 92       	push	r13
    144c:	ef 92       	push	r14
    144e:	ff 92       	push	r15
    1450:	0f 93       	push	r16
    1452:	1f 93       	push	r17
    1454:	df 93       	push	r29
    1456:	cf 93       	push	r28
    1458:	cd b7       	in	r28, 0x3d	; 61
    145a:	de b7       	in	r29, 0x3e	; 62
    145c:	19 01       	movw	r2, r18
    145e:	2a 01       	movw	r4, r20
    1460:	0e 94 da 0e 	call	0x1db4	; 0x1db4 <__subsf3>
    1464:	3b 01       	movw	r6, r22
    1466:	4c 01       	movw	r8, r24
    1468:	6d 89       	ldd	r22, Y+21	; 0x15
    146a:	7e 89       	ldd	r23, Y+22	; 0x16
    146c:	8f 89       	ldd	r24, Y+23	; 0x17
    146e:	98 8d       	ldd	r25, Y+24	; 0x18
    1470:	a6 01       	movw	r20, r12
    1472:	95 01       	movw	r18, r10
    1474:	0e 94 da 0e 	call	0x1db4	; 0x1db4 <__subsf3>
    1478:	9b 01       	movw	r18, r22
    147a:	ac 01       	movw	r20, r24
    147c:	c4 01       	movw	r24, r8
    147e:	b3 01       	movw	r22, r6
    1480:	0e 94 f4 10 	call	0x21e8	; 0x21e8 <__mulsf3>
    1484:	3b 01       	movw	r6, r22
    1486:	4c 01       	movw	r8, r24
    1488:	c8 01       	movw	r24, r16
    148a:	b7 01       	movw	r22, r14
    148c:	a2 01       	movw	r20, r4
    148e:	91 01       	movw	r18, r2
    1490:	0e 94 da 0e 	call	0x1db4	; 0x1db4 <__subsf3>
    1494:	9b 01       	movw	r18, r22
    1496:	ac 01       	movw	r20, r24
    1498:	c4 01       	movw	r24, r8
    149a:	b3 01       	movw	r22, r6
    149c:	0e 94 a1 0f 	call	0x1f42	; 0x1f42 <__divsf3>
    14a0:	a6 01       	movw	r20, r12
    14a2:	95 01       	movw	r18, r10
    14a4:	0e 94 db 0e 	call	0x1db6	; 0x1db6 <__addsf3>
    14a8:	cf 91       	pop	r28
    14aa:	df 91       	pop	r29
    14ac:	1f 91       	pop	r17
    14ae:	0f 91       	pop	r16
    14b0:	ff 90       	pop	r15
    14b2:	ef 90       	pop	r14
    14b4:	df 90       	pop	r13
    14b6:	cf 90       	pop	r12
    14b8:	bf 90       	pop	r11
    14ba:	af 90       	pop	r10
    14bc:	9f 90       	pop	r9
    14be:	8f 90       	pop	r8
    14c0:	7f 90       	pop	r7
    14c2:	6f 90       	pop	r6
    14c4:	5f 90       	pop	r5
    14c6:	4f 90       	pop	r4
    14c8:	3f 90       	pop	r3
    14ca:	2f 90       	pop	r2
    14cc:	08 95       	ret

000014ce <armLAngle>:
    14ce:	8f 92       	push	r8
    14d0:	9f 92       	push	r9
    14d2:	af 92       	push	r10
    14d4:	bf 92       	push	r11
    14d6:	cf 92       	push	r12
    14d8:	df 92       	push	r13
    14da:	ef 92       	push	r14
    14dc:	ff 92       	push	r15
    14de:	0f 93       	push	r16
    14e0:	1f 93       	push	r17
    14e2:	00 d0       	rcall	.+0      	; 0x14e4 <armLAngle+0x16>
    14e4:	00 d0       	rcall	.+0      	; 0x14e6 <armLAngle+0x18>
    14e6:	8d b6       	in	r8, 0x3d	; 61
    14e8:	9e b6       	in	r9, 0x3e	; 62
    14ea:	08 94       	sec
    14ec:	81 1c       	adc	r8, r1
    14ee:	91 1c       	adc	r9, r1
    14f0:	aa 27       	eor	r26, r26
    14f2:	97 fd       	sbrc	r25, 7
    14f4:	a0 95       	com	r26
    14f6:	ba 2f       	mov	r27, r26
    14f8:	bc 01       	movw	r22, r24
    14fa:	cd 01       	movw	r24, r26
    14fc:	0e 94 3c 10 	call	0x2078	; 0x2078 <__floatsisf>
    1500:	20 e0       	ldi	r18, 0x00	; 0
    1502:	30 e0       	ldi	r19, 0x00	; 0
    1504:	44 eb       	ldi	r20, 0xB4	; 180
    1506:	52 e4       	ldi	r21, 0x42	; 66
    1508:	f4 01       	movw	r30, r8
    150a:	20 83       	st	Z, r18
    150c:	31 83       	std	Z+1, r19	; 0x01
    150e:	42 83       	std	Z+2, r20	; 0x02
    1510:	53 83       	std	Z+3, r21	; 0x03
    1512:	20 e0       	ldi	r18, 0x00	; 0
    1514:	30 e0       	ldi	r19, 0x00	; 0
    1516:	44 e8       	ldi	r20, 0x84	; 132
    1518:	53 e4       	ldi	r21, 0x43	; 67
    151a:	0f 2e       	mov	r0, r31
    151c:	f0 e0       	ldi	r31, 0x00	; 0
    151e:	ef 2e       	mov	r14, r31
    1520:	f0 e4       	ldi	r31, 0x40	; 64
    1522:	ff 2e       	mov	r15, r31
    1524:	f7 e2       	ldi	r31, 0x27	; 39
    1526:	0f 2f       	mov	r16, r31
    1528:	f4 e4       	ldi	r31, 0x44	; 68
    152a:	1f 2f       	mov	r17, r31
    152c:	f0 2d       	mov	r31, r0
    152e:	0f 2e       	mov	r0, r31
    1530:	f0 e0       	ldi	r31, 0x00	; 0
    1532:	af 2e       	mov	r10, r31
    1534:	f0 e0       	ldi	r31, 0x00	; 0
    1536:	bf 2e       	mov	r11, r31
    1538:	f0 e0       	ldi	r31, 0x00	; 0
    153a:	cf 2e       	mov	r12, r31
    153c:	f0 e0       	ldi	r31, 0x00	; 0
    153e:	df 2e       	mov	r13, r31
    1540:	f0 2d       	mov	r31, r0
    1542:	0e 94 1a 0a 	call	0x1434	; 0x1434 <map>
    1546:	0f 90       	pop	r0
    1548:	0f 90       	pop	r0
    154a:	0f 90       	pop	r0
    154c:	0f 90       	pop	r0
    154e:	0e 94 09 10 	call	0x2012	; 0x2012 <__fixsfsi>
    1552:	cb 01       	movw	r24, r22
    1554:	1f 91       	pop	r17
    1556:	0f 91       	pop	r16
    1558:	ff 90       	pop	r15
    155a:	ef 90       	pop	r14
    155c:	df 90       	pop	r13
    155e:	cf 90       	pop	r12
    1560:	bf 90       	pop	r11
    1562:	af 90       	pop	r10
    1564:	9f 90       	pop	r9
    1566:	8f 90       	pop	r8
    1568:	08 95       	ret

0000156a <armUAngle>:
    156a:	8f 92       	push	r8
    156c:	9f 92       	push	r9
    156e:	af 92       	push	r10
    1570:	bf 92       	push	r11
    1572:	cf 92       	push	r12
    1574:	df 92       	push	r13
    1576:	ef 92       	push	r14
    1578:	ff 92       	push	r15
    157a:	0f 93       	push	r16
    157c:	1f 93       	push	r17
    157e:	00 d0       	rcall	.+0      	; 0x1580 <armUAngle+0x16>
    1580:	00 d0       	rcall	.+0      	; 0x1582 <armUAngle+0x18>
    1582:	8d b6       	in	r8, 0x3d	; 61
    1584:	9e b6       	in	r9, 0x3e	; 62
    1586:	08 94       	sec
    1588:	81 1c       	adc	r8, r1
    158a:	91 1c       	adc	r9, r1
    158c:	aa 27       	eor	r26, r26
    158e:	97 fd       	sbrc	r25, 7
    1590:	a0 95       	com	r26
    1592:	ba 2f       	mov	r27, r26
    1594:	bc 01       	movw	r22, r24
    1596:	cd 01       	movw	r24, r26
    1598:	0e 94 3c 10 	call	0x2078	; 0x2078 <__floatsisf>
    159c:	20 e0       	ldi	r18, 0x00	; 0
    159e:	30 e0       	ldi	r19, 0x00	; 0
    15a0:	40 e0       	ldi	r20, 0x00	; 0
    15a2:	50 e0       	ldi	r21, 0x00	; 0
    15a4:	f4 01       	movw	r30, r8
    15a6:	20 83       	st	Z, r18
    15a8:	31 83       	std	Z+1, r19	; 0x01
    15aa:	42 83       	std	Z+2, r20	; 0x02
    15ac:	53 83       	std	Z+3, r21	; 0x03
    15ae:	20 e0       	ldi	r18, 0x00	; 0
    15b0:	30 e0       	ldi	r19, 0x00	; 0
    15b2:	47 e8       	ldi	r20, 0x87	; 135
    15b4:	53 e4       	ldi	r21, 0x43	; 67
    15b6:	0f 2e       	mov	r0, r31
    15b8:	f0 e0       	ldi	r31, 0x00	; 0
    15ba:	ef 2e       	mov	r14, r31
    15bc:	f0 e4       	ldi	r31, 0x40	; 64
    15be:	ff 2e       	mov	r15, r31
    15c0:	fe e1       	ldi	r31, 0x1E	; 30
    15c2:	0f 2f       	mov	r16, r31
    15c4:	f4 e4       	ldi	r31, 0x44	; 68
    15c6:	1f 2f       	mov	r17, r31
    15c8:	f0 2d       	mov	r31, r0
    15ca:	0f 2e       	mov	r0, r31
    15cc:	f0 e0       	ldi	r31, 0x00	; 0
    15ce:	af 2e       	mov	r10, r31
    15d0:	f0 e0       	ldi	r31, 0x00	; 0
    15d2:	bf 2e       	mov	r11, r31
    15d4:	f4 eb       	ldi	r31, 0xB4	; 180
    15d6:	cf 2e       	mov	r12, r31
    15d8:	f2 ec       	ldi	r31, 0xC2	; 194
    15da:	df 2e       	mov	r13, r31
    15dc:	f0 2d       	mov	r31, r0
    15de:	0e 94 1a 0a 	call	0x1434	; 0x1434 <map>
    15e2:	0f 90       	pop	r0
    15e4:	0f 90       	pop	r0
    15e6:	0f 90       	pop	r0
    15e8:	0f 90       	pop	r0
    15ea:	0e 94 09 10 	call	0x2012	; 0x2012 <__fixsfsi>
    15ee:	cb 01       	movw	r24, r22
    15f0:	1f 91       	pop	r17
    15f2:	0f 91       	pop	r16
    15f4:	ff 90       	pop	r15
    15f6:	ef 90       	pop	r14
    15f8:	df 90       	pop	r13
    15fa:	cf 90       	pop	r12
    15fc:	bf 90       	pop	r11
    15fe:	af 90       	pop	r10
    1600:	9f 90       	pop	r9
    1602:	8f 90       	pop	r8
    1604:	08 95       	ret

00001606 <radToDegree>:
    1606:	20 91 48 01 	lds	r18, 0x0148
    160a:	30 91 49 01 	lds	r19, 0x0149
    160e:	40 91 4a 01 	lds	r20, 0x014A
    1612:	50 91 4b 01 	lds	r21, 0x014B
    1616:	0e 94 a1 0f 	call	0x1f42	; 0x1f42 <__divsf3>
    161a:	20 e0       	ldi	r18, 0x00	; 0
    161c:	30 e0       	ldi	r19, 0x00	; 0
    161e:	44 e3       	ldi	r20, 0x34	; 52
    1620:	53 e4       	ldi	r21, 0x43	; 67
    1622:	0e 94 f4 10 	call	0x21e8	; 0x21e8 <__mulsf3>
    1626:	0e 94 09 10 	call	0x2012	; 0x2012 <__fixsfsi>
    162a:	cb 01       	movw	r24, r22
    162c:	08 95       	ret

0000162e <settled>:
    162e:	68 1b       	sub	r22, r24
    1630:	79 0b       	sbc	r23, r25
    1632:	77 ff       	sbrs	r23, 7
    1634:	06 c0       	rjmp	.+12     	; 0x1642 <settled+0x14>
    1636:	80 e0       	ldi	r24, 0x00	; 0
    1638:	6b 5f       	subi	r22, 0xFB	; 251
    163a:	7f 4f       	sbci	r23, 0xFF	; 255
    163c:	3c f0       	brlt	.+14     	; 0x164c <settled+0x1e>
    163e:	81 e0       	ldi	r24, 0x01	; 1
    1640:	08 95       	ret
    1642:	80 e0       	ldi	r24, 0x00	; 0
    1644:	66 30       	cpi	r22, 0x06	; 6
    1646:	71 05       	cpc	r23, r1
    1648:	0c f4       	brge	.+2      	; 0x164c <settled+0x1e>
    164a:	81 e0       	ldi	r24, 0x01	; 1
    164c:	08 95       	ret

0000164e <driveLink>:
    164e:	88 34       	cpi	r24, 0x48	; 72
    1650:	91 05       	cpc	r25, r1
    1652:	d1 f0       	breq	.+52     	; 0x1688 <driveLink+0x3a>
    1654:	8c 34       	cpi	r24, 0x4C	; 76
    1656:	91 05       	cpc	r25, r1
    1658:	a9 f5       	brne	.+106    	; 0x16c4 <driveLink+0x76>
    165a:	61 30       	cpi	r22, 0x01	; 1
    165c:	71 05       	cpc	r23, r1
    165e:	49 f4       	brne	.+18     	; 0x1672 <driveLink+0x24>
    1660:	80 e0       	ldi	r24, 0x00	; 0
    1662:	90 e0       	ldi	r25, 0x00	; 0
    1664:	60 e0       	ldi	r22, 0x00	; 0
    1666:	78 e0       	ldi	r23, 0x08	; 8
    1668:	0e 94 f4 04 	call	0x9e8	; 0x9e8 <setDAC>
    166c:	81 e0       	ldi	r24, 0x01	; 1
    166e:	90 e0       	ldi	r25, 0x00	; 0
    1670:	16 c0       	rjmp	.+44     	; 0x169e <driveLink+0x50>
    1672:	67 2b       	or	r22, r23
    1674:	39 f5       	brne	.+78     	; 0x16c4 <driveLink+0x76>
    1676:	81 e0       	ldi	r24, 0x01	; 1
    1678:	90 e0       	ldi	r25, 0x00	; 0
    167a:	60 e0       	ldi	r22, 0x00	; 0
    167c:	78 e0       	ldi	r23, 0x08	; 8
    167e:	0e 94 f4 04 	call	0x9e8	; 0x9e8 <setDAC>
    1682:	80 e0       	ldi	r24, 0x00	; 0
    1684:	90 e0       	ldi	r25, 0x00	; 0
    1686:	0b c0       	rjmp	.+22     	; 0x169e <driveLink+0x50>
    1688:	61 30       	cpi	r22, 0x01	; 1
    168a:	71 05       	cpc	r23, r1
    168c:	69 f4       	brne	.+26     	; 0x16a8 <driveLink+0x5a>
    168e:	82 e0       	ldi	r24, 0x02	; 2
    1690:	90 e0       	ldi	r25, 0x00	; 0
    1692:	60 e0       	ldi	r22, 0x00	; 0
    1694:	78 e0       	ldi	r23, 0x08	; 8
    1696:	0e 94 f4 04 	call	0x9e8	; 0x9e8 <setDAC>
    169a:	83 e0       	ldi	r24, 0x03	; 3
    169c:	90 e0       	ldi	r25, 0x00	; 0
    169e:	60 e0       	ldi	r22, 0x00	; 0
    16a0:	70 e0       	ldi	r23, 0x00	; 0
    16a2:	0e 94 f4 04 	call	0x9e8	; 0x9e8 <setDAC>
    16a6:	08 95       	ret
    16a8:	67 2b       	or	r22, r23
    16aa:	61 f4       	brne	.+24     	; 0x16c4 <driveLink+0x76>
    16ac:	83 e0       	ldi	r24, 0x03	; 3
    16ae:	90 e0       	ldi	r25, 0x00	; 0
    16b0:	60 e0       	ldi	r22, 0x00	; 0
    16b2:	78 e0       	ldi	r23, 0x08	; 8
    16b4:	0e 94 f4 04 	call	0x9e8	; 0x9e8 <setDAC>
    16b8:	82 e0       	ldi	r24, 0x02	; 2
    16ba:	90 e0       	ldi	r25, 0x00	; 0
    16bc:	60 e0       	ldi	r22, 0x00	; 0
    16be:	70 e0       	ldi	r23, 0x00	; 0
    16c0:	0e 94 f4 04 	call	0x9e8	; 0x9e8 <setDAC>
    16c4:	08 95       	ret

000016c6 <stopMotors>:
    16c6:	80 e0       	ldi	r24, 0x00	; 0
    16c8:	90 e0       	ldi	r25, 0x00	; 0
    16ca:	60 e0       	ldi	r22, 0x00	; 0
    16cc:	70 e0       	ldi	r23, 0x00	; 0
    16ce:	0e 94 f4 04 	call	0x9e8	; 0x9e8 <setDAC>
    16d2:	81 e0       	ldi	r24, 0x01	; 1
    16d4:	90 e0       	ldi	r25, 0x00	; 0
    16d6:	60 e0       	ldi	r22, 0x00	; 0
    16d8:	70 e0       	ldi	r23, 0x00	; 0
    16da:	0e 94 f4 04 	call	0x9e8	; 0x9e8 <setDAC>
    16de:	82 e0       	ldi	r24, 0x02	; 2
    16e0:	90 e0       	ldi	r25, 0x00	; 0
    16e2:	60 e0       	ldi	r22, 0x00	; 0
    16e4:	70 e0       	ldi	r23, 0x00	; 0
    16e6:	0e 94 f4 04 	call	0x9e8	; 0x9e8 <setDAC>
    16ea:	83 e0       	ldi	r24, 0x03	; 3
    16ec:	90 e0       	ldi	r25, 0x00	; 0
    16ee:	60 e0       	ldi	r22, 0x00	; 0
    16f0:	70 e0       	ldi	r23, 0x00	; 0
    16f2:	0e 94 f4 04 	call	0x9e8	; 0x9e8 <setDAC>
    16f6:	08 95       	ret

000016f8 <gotoXY>:
    16f8:	2f 92       	push	r2
    16fa:	3f 92       	push	r3
    16fc:	4f 92       	push	r4
    16fe:	5f 92       	push	r5
    1700:	6f 92       	push	r6
    1702:	7f 92       	push	r7
    1704:	8f 92       	push	r8
    1706:	9f 92       	push	r9
    1708:	af 92       	push	r10
    170a:	bf 92       	push	r11
    170c:	cf 92       	push	r12
    170e:	df 92       	push	r13
    1710:	ef 92       	push	r14
    1712:	ff 92       	push	r15
    1714:	0f 93       	push	r16
    1716:	1f 93       	push	r17
    1718:	df 93       	push	r29
    171a:	cf 93       	push	r28
    171c:	cd b7       	in	r28, 0x3d	; 61
    171e:	de b7       	in	r29, 0x3e	; 62
    1720:	a0 97       	sbiw	r28, 0x20	; 32
    1722:	0f b6       	in	r0, 0x3f	; 63
    1724:	f8 94       	cli
    1726:	de bf       	out	0x3e, r29	; 62
    1728:	0f be       	out	0x3f, r0	; 63
    172a:	cd bf       	out	0x3d, r28	; 61
    172c:	9c 01       	movw	r18, r24
    172e:	44 27       	eor	r20, r20
    1730:	37 fd       	sbrc	r19, 7
    1732:	40 95       	com	r20
    1734:	54 2f       	mov	r21, r20
    1736:	29 8f       	std	Y+25, r18	; 0x19
    1738:	3a 8f       	std	Y+26, r19	; 0x1a
    173a:	4b 8f       	std	Y+27, r20	; 0x1b
    173c:	5c 8f       	std	Y+28, r21	; 0x1c
    173e:	cb 01       	movw	r24, r22
    1740:	aa 27       	eor	r26, r26
    1742:	97 fd       	sbrc	r25, 7
    1744:	a0 95       	com	r26
    1746:	ba 2f       	mov	r27, r26
    1748:	8d 8f       	std	Y+29, r24	; 0x1d
    174a:	9e 8f       	std	Y+30, r25	; 0x1e
    174c:	af 8f       	std	Y+31, r26	; 0x1f
    174e:	b8 a3       	std	Y+32, r27	; 0x20
    1750:	82 e0       	ldi	r24, 0x02	; 2
    1752:	90 e0       	ldi	r25, 0x00	; 0
    1754:	0e 94 f0 04 	call	0x9e0	; 0x9e0 <changeADC>
    1758:	82 e0       	ldi	r24, 0x02	; 2
    175a:	90 e0       	ldi	r25, 0x00	; 0
    175c:	0e 94 d4 04 	call	0x9a8	; 0x9a8 <getADC>
    1760:	0e 94 67 0a 	call	0x14ce	; 0x14ce <armLAngle>
    1764:	9c 83       	std	Y+4, r25	; 0x04
    1766:	8b 83       	std	Y+3, r24	; 0x03
    1768:	83 e0       	ldi	r24, 0x03	; 3
    176a:	90 e0       	ldi	r25, 0x00	; 0
    176c:	0e 94 f0 04 	call	0x9e0	; 0x9e0 <changeADC>
    1770:	83 e0       	ldi	r24, 0x03	; 3
    1772:	90 e0       	ldi	r25, 0x00	; 0
    1774:	0e 94 d4 04 	call	0x9a8	; 0x9a8 <getADC>
    1778:	0e 94 b5 0a 	call	0x156a	; 0x156a <armUAngle>
    177c:	9a 83       	std	Y+2, r25	; 0x02
    177e:	89 83       	std	Y+1, r24	; 0x01
    1780:	69 8d       	ldd	r22, Y+25	; 0x19
    1782:	7a 8d       	ldd	r23, Y+26	; 0x1a
    1784:	8b 8d       	ldd	r24, Y+27	; 0x1b
    1786:	9c 8d       	ldd	r25, Y+28	; 0x1c
    1788:	0e 94 3c 10 	call	0x2078	; 0x2078 <__floatsisf>
    178c:	69 8b       	std	Y+17, r22	; 0x11
    178e:	7a 8b       	std	Y+18, r23	; 0x12
    1790:	8b 8b       	std	Y+19, r24	; 0x13
    1792:	9c 8b       	std	Y+20, r25	; 0x14
    1794:	6d 8d       	ldd	r22, Y+29	; 0x1d
    1796:	7e 8d       	ldd	r23, Y+30	; 0x1e
    1798:	8f 8d       	ldd	r24, Y+31	; 0x1f
    179a:	98 a1       	ldd	r25, Y+32	; 0x20
    179c:	0e 94 3c 10 	call	0x2078	; 0x2078 <__floatsisf>
    17a0:	20 91 3c 01 	lds	r18, 0x013C
    17a4:	30 91 3d 01 	lds	r19, 0x013D
    17a8:	40 91 3e 01 	lds	r20, 0x013E
    17ac:	50 91 3f 01 	lds	r21, 0x013F
    17b0:	0e 94 da 0e 	call	0x1db4	; 0x1db4 <__subsf3>
    17b4:	6d 8b       	std	Y+21, r22	; 0x15
    17b6:	7e 8b       	std	Y+22, r23	; 0x16
    17b8:	8f 8b       	std	Y+23, r24	; 0x17
    17ba:	98 8f       	std	Y+24, r25	; 0x18
    17bc:	60 90 40 01 	lds	r6, 0x0140
    17c0:	70 90 41 01 	lds	r7, 0x0141
    17c4:	80 90 42 01 	lds	r8, 0x0142
    17c8:	90 90 43 01 	lds	r9, 0x0143
    17cc:	20 90 44 01 	lds	r2, 0x0144
    17d0:	30 90 45 01 	lds	r3, 0x0145
    17d4:	40 90 46 01 	lds	r4, 0x0146
    17d8:	50 90 47 01 	lds	r5, 0x0147
    17dc:	69 89       	ldd	r22, Y+17	; 0x11
    17de:	7a 89       	ldd	r23, Y+18	; 0x12
    17e0:	8b 89       	ldd	r24, Y+19	; 0x13
    17e2:	9c 89       	ldd	r25, Y+20	; 0x14
    17e4:	9b 01       	movw	r18, r22
    17e6:	ac 01       	movw	r20, r24
    17e8:	0e 94 f4 10 	call	0x21e8	; 0x21e8 <__mulsf3>
    17ec:	7b 01       	movw	r14, r22
    17ee:	8c 01       	movw	r16, r24
    17f0:	6d 89       	ldd	r22, Y+21	; 0x15
    17f2:	7e 89       	ldd	r23, Y+22	; 0x16
    17f4:	8f 89       	ldd	r24, Y+23	; 0x17
    17f6:	98 8d       	ldd	r25, Y+24	; 0x18
    17f8:	9b 01       	movw	r18, r22
    17fa:	ac 01       	movw	r20, r24
    17fc:	0e 94 f4 10 	call	0x21e8	; 0x21e8 <__mulsf3>
    1800:	9b 01       	movw	r18, r22
    1802:	ac 01       	movw	r20, r24
    1804:	c8 01       	movw	r24, r16
    1806:	b7 01       	movw	r22, r14
    1808:	0e 94 db 0e 	call	0x1db6	; 0x1db6 <__addsf3>
    180c:	7b 01       	movw	r14, r22
    180e:	8c 01       	movw	r16, r24
    1810:	c4 01       	movw	r24, r8
    1812:	b3 01       	movw	r22, r6
    1814:	a4 01       	movw	r20, r8
    1816:	93 01       	movw	r18, r6
    1818:	0e 94 f4 10 	call	0x21e8	; 0x21e8 <__mulsf3>
    181c:	9b 01       	movw	r18, r22
    181e:	ac 01       	movw	r20, r24
    1820:	c8 01       	movw	r24, r16
    1822:	b7 01       	movw	r22, r14
    1824:	0e 94 da 0e 	call	0x1db4	; 0x1db4 <__subsf3>
    1828:	7b 01       	movw	r14, r22
    182a:	8c 01       	movw	r16, r24
    182c:	c2 01       	movw	r24, r4
    182e:	b1 01       	movw	r22, r2
    1830:	a2 01       	movw	r20, r4
    1832:	91 01       	movw	r18, r2
    1834:	0e 94 f4 10 	call	0x21e8	; 0x21e8 <__mulsf3>
    1838:	9b 01       	movw	r18, r22
    183a:	ac 01       	movw	r20, r24
    183c:	c8 01       	movw	r24, r16
    183e:	b7 01       	movw	r22, r14
    1840:	0e 94 da 0e 	call	0x1db4	; 0x1db4 <__subsf3>
    1844:	7b 01       	movw	r14, r22
    1846:	8c 01       	movw	r16, r24
    1848:	c4 01       	movw	r24, r8
    184a:	b3 01       	movw	r22, r6
    184c:	a4 01       	movw	r20, r8
    184e:	93 01       	movw	r18, r6
    1850:	0e 94 db 0e 	call	0x1db6	; 0x1db6 <__addsf3>
    1854:	a2 01       	movw	r20, r4
    1856:	91 01       	movw	r18, r2
    1858:	0e 94 f4 10 	call	0x21e8	; 0x21e8 <__mulsf3>
    185c:	9b 01       	movw	r18, r22
    185e:	ac 01       	movw	r20, r24
    1860:	c8 01       	movw	r24, r16
    1862:	b7 01       	movw	r22, r14
    1864:	0e 94 a1 0f 	call	0x1f42	; 0x1f42 <__divsf3>
    1868:	5b 01       	movw	r10, r22
    186a:	6c 01       	movw	r12, r24
    186c:	a6 01       	movw	r20, r12
    186e:	95 01       	movw	r18, r10
    1870:	0e 94 f4 10 	call	0x21e8	; 0x21e8 <__mulsf3>
    1874:	9b 01       	movw	r18, r22
    1876:	ac 01       	movw	r20, r24
    1878:	60 e0       	ldi	r22, 0x00	; 0
    187a:	70 e0       	ldi	r23, 0x00	; 0
    187c:	80 e8       	ldi	r24, 0x80	; 128
    187e:	9f e3       	ldi	r25, 0x3F	; 63
    1880:	0e 94 da 0e 	call	0x1db4	; 0x1db4 <__subsf3>
    1884:	0e 94 a7 11 	call	0x234e	; 0x234e <sqrt>
    1888:	7b 01       	movw	r14, r22
    188a:	8c 01       	movw	r16, r24
    188c:	17 fb       	bst	r17, 7
    188e:	10 95       	com	r17
    1890:	17 f9       	bld	r17, 7
    1892:	10 95       	com	r17
    1894:	c8 01       	movw	r24, r16
    1896:	b7 01       	movw	r22, r14
    1898:	a6 01       	movw	r20, r12
    189a:	95 01       	movw	r18, r10
    189c:	0e 94 4e 0f 	call	0x1e9c	; 0x1e9c <atan2>
    18a0:	6d 87       	std	Y+13, r22	; 0x0d
    18a2:	7e 87       	std	Y+14, r23	; 0x0e
    18a4:	8f 87       	std	Y+15, r24	; 0x0f
    18a6:	98 8b       	std	Y+16, r25	; 0x10
    18a8:	20 91 48 01 	lds	r18, 0x0148
    18ac:	30 91 49 01 	lds	r19, 0x0149
    18b0:	40 91 4a 01 	lds	r20, 0x014A
    18b4:	50 91 4b 01 	lds	r21, 0x014B
    18b8:	29 87       	std	Y+9, r18	; 0x09
    18ba:	3a 87       	std	Y+10, r19	; 0x0a
    18bc:	4b 87       	std	Y+11, r20	; 0x0b
    18be:	5c 87       	std	Y+12, r21	; 0x0c
    18c0:	6d 89       	ldd	r22, Y+21	; 0x15
    18c2:	7e 89       	ldd	r23, Y+22	; 0x16
    18c4:	8f 89       	ldd	r24, Y+23	; 0x17
    18c6:	98 8d       	ldd	r25, Y+24	; 0x18
    18c8:	29 89       	ldd	r18, Y+17	; 0x11
    18ca:	3a 89       	ldd	r19, Y+18	; 0x12
    18cc:	4b 89       	ldd	r20, Y+19	; 0x13
    18ce:	5c 89       	ldd	r21, Y+20	; 0x14
    18d0:	0e 94 4e 0f 	call	0x1e9c	; 0x1e9c <atan2>
    18d4:	6d 83       	std	Y+5, r22	; 0x05
    18d6:	7e 83       	std	Y+6, r23	; 0x06
    18d8:	8f 83       	std	Y+7, r24	; 0x07
    18da:	98 87       	std	Y+8, r25	; 0x08
    18dc:	c4 01       	movw	r24, r8
    18de:	b3 01       	movw	r22, r6
    18e0:	a8 01       	movw	r20, r16
    18e2:	97 01       	movw	r18, r14
    18e4:	0e 94 f4 10 	call	0x21e8	; 0x21e8 <__mulsf3>
    18e8:	7b 01       	movw	r14, r22
    18ea:	8c 01       	movw	r16, r24
    18ec:	c2 01       	movw	r24, r4
    18ee:	b1 01       	movw	r22, r2
    18f0:	a6 01       	movw	r20, r12
    18f2:	95 01       	movw	r18, r10
    18f4:	0e 94 f4 10 	call	0x21e8	; 0x21e8 <__mulsf3>
    18f8:	9b 01       	movw	r18, r22
    18fa:	ac 01       	movw	r20, r24
    18fc:	c4 01       	movw	r24, r8
    18fe:	b3 01       	movw	r22, r6
    1900:	0e 94 db 0e 	call	0x1db6	; 0x1db6 <__addsf3>
    1904:	9b 01       	movw	r18, r22
    1906:	ac 01       	movw	r20, r24
    1908:	c8 01       	movw	r24, r16
    190a:	b7 01       	movw	r22, r14
    190c:	0e 94 4e 0f 	call	0x1e9c	; 0x1e9c <atan2>
    1910:	9b 01       	movw	r18, r22
    1912:	ac 01       	movw	r20, r24
    1914:	6d 81       	ldd	r22, Y+5	; 0x05
    1916:	7e 81       	ldd	r23, Y+6	; 0x06
    1918:	8f 81       	ldd	r24, Y+7	; 0x07
    191a:	98 85       	ldd	r25, Y+8	; 0x08
    191c:	0e 94 da 0e 	call	0x1db4	; 0x1db4 <__subsf3>
    1920:	20 e0       	ldi	r18, 0x00	; 0
    1922:	30 e0       	ldi	r19, 0x00	; 0
    1924:	44 e3       	ldi	r20, 0x34	; 52
    1926:	53 e4       	ldi	r21, 0x43	; 67
    1928:	0e 94 f4 10 	call	0x21e8	; 0x21e8 <__mulsf3>
    192c:	29 85       	ldd	r18, Y+9	; 0x09
    192e:	3a 85       	ldd	r19, Y+10	; 0x0a
    1930:	4b 85       	ldd	r20, Y+11	; 0x0b
    1932:	5c 85       	ldd	r21, Y+12	; 0x0c
    1934:	0e 94 a1 0f 	call	0x1f42	; 0x1f42 <__divsf3>
    1938:	0e 94 09 10 	call	0x2012	; 0x2012 <__fixsfsi>
    193c:	9b 01       	movw	r18, r22
    193e:	ac 01       	movw	r20, r24
    1940:	6b 01       	movw	r12, r22
    1942:	8c e4       	ldi	r24, 0x4C	; 76
    1944:	b9 01       	movw	r22, r18
    1946:	4b 81       	ldd	r20, Y+3	; 0x03
    1948:	5c 81       	ldd	r21, Y+4	; 0x04
    194a:	0e 94 37 06 	call	0xc6e	; 0xc6e <calcPID>
    194e:	8c 01       	movw	r16, r24
    1950:	6d 85       	ldd	r22, Y+13	; 0x0d
    1952:	7e 85       	ldd	r23, Y+14	; 0x0e
    1954:	8f 85       	ldd	r24, Y+15	; 0x0f
    1956:	98 89       	ldd	r25, Y+16	; 0x10
    1958:	20 e0       	ldi	r18, 0x00	; 0
    195a:	30 e0       	ldi	r19, 0x00	; 0
    195c:	44 e3       	ldi	r20, 0x34	; 52
    195e:	53 e4       	ldi	r21, 0x43	; 67
    1960:	0e 94 f4 10 	call	0x21e8	; 0x21e8 <__mulsf3>
    1964:	29 85       	ldd	r18, Y+9	; 0x09
    1966:	3a 85       	ldd	r19, Y+10	; 0x0a
    1968:	4b 85       	ldd	r20, Y+11	; 0x0b
    196a:	5c 85       	ldd	r21, Y+12	; 0x0c
    196c:	0e 94 a1 0f 	call	0x1f42	; 0x1f42 <__divsf3>
    1970:	0e 94 09 10 	call	0x2012	; 0x2012 <__fixsfsi>
    1974:	9b 01       	movw	r18, r22
    1976:	ac 01       	movw	r20, r24
    1978:	7b 01       	movw	r14, r22
    197a:	88 e4       	ldi	r24, 0x48	; 72
    197c:	b9 01       	movw	r22, r18
    197e:	49 81       	ldd	r20, Y+1	; 0x01
    1980:	5a 81       	ldd	r21, Y+2	; 0x02
    1982:	0e 94 37 06 	call	0xc6e	; 0xc6e <calcPID>
    1986:	5c 01       	movw	r10, r24
    1988:	17 fd       	sbrc	r17, 7
    198a:	08 c0       	rjmp	.+16     	; 0x199c <gotoXY+0x2a4>
    198c:	80 e0       	ldi	r24, 0x00	; 0
    198e:	90 e0       	ldi	r25, 0x00	; 0
    1990:	b8 01       	movw	r22, r16
    1992:	0e 94 f4 04 	call	0x9e8	; 0x9e8 <setDAC>
    1996:	81 e0       	ldi	r24, 0x01	; 1
    1998:	90 e0       	ldi	r25, 0x00	; 0
    199a:	0a c0       	rjmp	.+20     	; 0x19b0 <gotoXY+0x2b8>
    199c:	66 27       	eor	r22, r22
    199e:	77 27       	eor	r23, r23
    19a0:	60 1b       	sub	r22, r16
    19a2:	71 0b       	sbc	r23, r17
    19a4:	81 e0       	ldi	r24, 0x01	; 1
    19a6:	90 e0       	ldi	r25, 0x00	; 0
    19a8:	0e 94 f4 04 	call	0x9e8	; 0x9e8 <setDAC>
    19ac:	80 e0       	ldi	r24, 0x00	; 0
    19ae:	90 e0       	ldi	r25, 0x00	; 0
    19b0:	60 e0       	ldi	r22, 0x00	; 0
    19b2:	70 e0       	ldi	r23, 0x00	; 0
    19b4:	0e 94 f4 04 	call	0x9e8	; 0x9e8 <setDAC>
    19b8:	b7 fc       	sbrc	r11, 7
    19ba:	08 c0       	rjmp	.+16     	; 0x19cc <gotoXY+0x2d4>
    19bc:	83 e0       	ldi	r24, 0x03	; 3
    19be:	90 e0       	ldi	r25, 0x00	; 0
    19c0:	b5 01       	movw	r22, r10
    19c2:	0e 94 f4 04 	call	0x9e8	; 0x9e8 <setDAC>
    19c6:	82 e0       	ldi	r24, 0x02	; 2
    19c8:	90 e0       	ldi	r25, 0x00	; 0
    19ca:	07 c0       	rjmp	.+14     	; 0x19da <gotoXY+0x2e2>
    19cc:	82 e0       	ldi	r24, 0x02	; 2
    19ce:	90 e0       	ldi	r25, 0x00	; 0
    19d0:	b5 01       	movw	r22, r10
    19d2:	0e 94 f4 04 	call	0x9e8	; 0x9e8 <setDAC>
    19d6:	83 e0       	ldi	r24, 0x03	; 3
    19d8:	90 e0       	ldi	r25, 0x00	; 0
    19da:	60 e0       	ldi	r22, 0x00	; 0
    19dc:	70 e0       	ldi	r23, 0x00	; 0
    19de:	0e 94 f4 04 	call	0x9e8	; 0x9e8 <setDAC>
    19e2:	c6 01       	movw	r24, r12
    19e4:	6b 81       	ldd	r22, Y+3	; 0x03
    19e6:	7c 81       	ldd	r23, Y+4	; 0x04
    19e8:	0e 94 17 0b 	call	0x162e	; 0x162e <settled>
    19ec:	88 23       	and	r24, r24
    19ee:	09 f4       	brne	.+2      	; 0x19f2 <gotoXY+0x2fa>
    19f0:	af ce       	rjmp	.-674    	; 0x1750 <gotoXY+0x58>
    19f2:	c7 01       	movw	r24, r14
    19f4:	69 81       	ldd	r22, Y+1	; 0x01
    19f6:	7a 81       	ldd	r23, Y+2	; 0x02
    19f8:	0e 94 17 0b 	call	0x162e	; 0x162e <settled>
    19fc:	88 23       	and	r24, r24
    19fe:	09 f4       	brne	.+2      	; 0x1a02 <gotoXY+0x30a>
    1a00:	a7 ce       	rjmp	.-690    	; 0x1750 <gotoXY+0x58>
    1a02:	a0 96       	adiw	r28, 0x20	; 32
    1a04:	0f b6       	in	r0, 0x3f	; 63
    1a06:	f8 94       	cli
    1a08:	de bf       	out	0x3e, r29	; 62
    1a0a:	0f be       	out	0x3f, r0	; 63
    1a0c:	cd bf       	out	0x3d, r28	; 61
    1a0e:	cf 91       	pop	r28
    1a10:	df 91       	pop	r29
    1a12:	1f 91       	pop	r17
    1a14:	0f 91       	pop	r16
    1a16:	ff 90       	pop	r15
    1a18:	ef 90       	pop	r14
    1a1a:	df 90       	pop	r13
    1a1c:	cf 90       	pop	r12
    1a1e:	bf 90       	pop	r11
    1a20:	af 90       	pop	r10
    1a22:	9f 90       	pop	r9
    1a24:	8f 90       	pop	r8
    1a26:	7f 90       	pop	r7
    1a28:	6f 90       	pop	r6
    1a2a:	5f 90       	pop	r5
    1a2c:	4f 90       	pop	r4
    1a2e:	3f 90       	pop	r3
    1a30:	2f 90       	pop	r2
    1a32:	08 95       	ret

00001a34 <gotoAngles>:
    1a34:	af 92       	push	r10
    1a36:	bf 92       	push	r11
    1a38:	cf 92       	push	r12
    1a3a:	df 92       	push	r13
    1a3c:	ef 92       	push	r14
    1a3e:	ff 92       	push	r15
    1a40:	0f 93       	push	r16
    1a42:	1f 93       	push	r17
    1a44:	cf 93       	push	r28
    1a46:	df 93       	push	r29
    1a48:	6c 01       	movw	r12, r24
    1a4a:	5b 01       	movw	r10, r22
    1a4c:	82 e0       	ldi	r24, 0x02	; 2
    1a4e:	90 e0       	ldi	r25, 0x00	; 0
    1a50:	0e 94 f0 04 	call	0x9e0	; 0x9e0 <changeADC>
    1a54:	82 e0       	ldi	r24, 0x02	; 2
    1a56:	90 e0       	ldi	r25, 0x00	; 0
    1a58:	0e 94 d4 04 	call	0x9a8	; 0x9a8 <getADC>
    1a5c:	0e 94 67 0a 	call	0x14ce	; 0x14ce <armLAngle>
    1a60:	7c 01       	movw	r14, r24
    1a62:	83 e0       	ldi	r24, 0x03	; 3
    1a64:	90 e0       	ldi	r25, 0x00	; 0
    1a66:	0e 94 f0 04 	call	0x9e0	; 0x9e0 <changeADC>
    1a6a:	83 e0       	ldi	r24, 0x03	; 3
    1a6c:	90 e0       	ldi	r25, 0x00	; 0
    1a6e:	0e 94 d4 04 	call	0x9a8	; 0x9a8 <getADC>
    1a72:	0e 94 b5 0a 	call	0x156a	; 0x156a <armUAngle>
    1a76:	8c 01       	movw	r16, r24
    1a78:	8c e4       	ldi	r24, 0x4C	; 76
    1a7a:	b6 01       	movw	r22, r12
    1a7c:	a7 01       	movw	r20, r14
    1a7e:	0e 94 37 06 	call	0xc6e	; 0xc6e <calcPID>
    1a82:	ec 01       	movw	r28, r24
    1a84:	88 e4       	ldi	r24, 0x48	; 72
    1a86:	b5 01       	movw	r22, r10
    1a88:	a8 01       	movw	r20, r16
    1a8a:	0e 94 37 06 	call	0xc6e	; 0xc6e <calcPID>
    1a8e:	8c 01       	movw	r16, r24
    1a90:	d7 fd       	sbrc	r29, 7
    1a92:	08 c0       	rjmp	.+16     	; 0x1aa4 <gotoAngles+0x70>
    1a94:	80 e0       	ldi	r24, 0x00	; 0
    1a96:	90 e0       	ldi	r25, 0x00	; 0
    1a98:	be 01       	movw	r22, r28
    1a9a:	0e 94 f4 04 	call	0x9e8	; 0x9e8 <setDAC>
    1a9e:	81 e0       	ldi	r24, 0x01	; 1
    1aa0:	90 e0       	ldi	r25, 0x00	; 0
    1aa2:	0a c0       	rjmp	.+20     	; 0x1ab8 <gotoAngles+0x84>
    1aa4:	66 27       	eor	r22, r22
    1aa6:	77 27       	eor	r23, r23
    1aa8:	6c 1b       	sub	r22, r28
    1aaa:	7d 0b       	sbc	r23, r29
    1aac:	81 e0       	ldi	r24, 0x01	; 1
    1aae:	90 e0       	ldi	r25, 0x00	; 0
    1ab0:	0e 94 f4 04 	call	0x9e8	; 0x9e8 <setDAC>
    1ab4:	80 e0       	ldi	r24, 0x00	; 0
    1ab6:	90 e0       	ldi	r25, 0x00	; 0
    1ab8:	60 e0       	ldi	r22, 0x00	; 0
    1aba:	70 e0       	ldi	r23, 0x00	; 0
    1abc:	0e 94 f4 04 	call	0x9e8	; 0x9e8 <setDAC>
    1ac0:	17 fd       	sbrc	r17, 7
    1ac2:	08 c0       	rjmp	.+16     	; 0x1ad4 <gotoAngles+0xa0>
    1ac4:	83 e0       	ldi	r24, 0x03	; 3
    1ac6:	90 e0       	ldi	r25, 0x00	; 0
    1ac8:	b8 01       	movw	r22, r16
    1aca:	0e 94 f4 04 	call	0x9e8	; 0x9e8 <setDAC>
    1ace:	82 e0       	ldi	r24, 0x02	; 2
    1ad0:	90 e0       	ldi	r25, 0x00	; 0
    1ad2:	07 c0       	rjmp	.+14     	; 0x1ae2 <gotoAngles+0xae>
    1ad4:	82 e0       	ldi	r24, 0x02	; 2
    1ad6:	90 e0       	ldi	r25, 0x00	; 0
    1ad8:	b8 01       	movw	r22, r16
    1ada:	0e 94 f4 04 	call	0x9e8	; 0x9e8 <setDAC>
    1ade:	83 e0       	ldi	r24, 0x03	; 3
    1ae0:	90 e0       	ldi	r25, 0x00	; 0
    1ae2:	60 e0       	ldi	r22, 0x00	; 0
    1ae4:	70 e0       	ldi	r23, 0x00	; 0
    1ae6:	0e 94 f4 04 	call	0x9e8	; 0x9e8 <setDAC>
    1aea:	df 91       	pop	r29
    1aec:	cf 91       	pop	r28
    1aee:	1f 91       	pop	r17
    1af0:	0f 91       	pop	r16
    1af2:	ff 90       	pop	r15
    1af4:	ef 90       	pop	r14
    1af6:	df 90       	pop	r13
    1af8:	cf 90       	pop	r12
    1afa:	bf 90       	pop	r11
    1afc:	af 90       	pop	r10
    1afe:	08 95       	ret

00001b00 <homePos>:
    1b00:	80 e0       	ldi	r24, 0x00	; 0
    1b02:	90 e0       	ldi	r25, 0x00	; 0
    1b04:	60 e0       	ldi	r22, 0x00	; 0
    1b06:	70 e0       	ldi	r23, 0x00	; 0
    1b08:	0e 94 1a 0d 	call	0x1a34	; 0x1a34 <gotoAngles>
    1b0c:	80 e0       	ldi	r24, 0x00	; 0
    1b0e:	90 e0       	ldi	r25, 0x00	; 0
    1b10:	0e 94 22 07 	call	0xe44	; 0xe44 <encInit>
    1b14:	80 e0       	ldi	r24, 0x00	; 0
    1b16:	90 e0       	ldi	r25, 0x00	; 0
    1b18:	0e 94 02 07 	call	0xe04	; 0xe04 <resetEncCount>
    1b1c:	81 e0       	ldi	r24, 0x01	; 1
    1b1e:	90 e0       	ldi	r25, 0x00	; 0
    1b20:	0e 94 22 07 	call	0xe44	; 0xe44 <encInit>
    1b24:	81 e0       	ldi	r24, 0x01	; 1
    1b26:	90 e0       	ldi	r25, 0x00	; 0
    1b28:	0e 94 02 07 	call	0xe04	; 0xe04 <resetEncCount>
    1b2c:	08 95       	ret

00001b2e <potAngle>:
    1b2e:	2b e1       	ldi	r18, 0x1B	; 27
    1b30:	30 e0       	ldi	r19, 0x00	; 0
    1b32:	ac 01       	movw	r20, r24
    1b34:	42 9f       	mul	r20, r18
    1b36:	c0 01       	movw	r24, r0
    1b38:	43 9f       	mul	r20, r19
    1b3a:	90 0d       	add	r25, r0
    1b3c:	52 9f       	mul	r21, r18
    1b3e:	90 0d       	add	r25, r0
    1b40:	11 24       	eor	r1, r1
    1b42:	66 e6       	ldi	r22, 0x66	; 102
    1b44:	70 e0       	ldi	r23, 0x00	; 0
    1b46:	0e 94 dc 12 	call	0x25b8	; 0x25b8 <__divmodhi4>
    1b4a:	cb 01       	movw	r24, r22
    1b4c:	08 95       	ret

00001b4e <potVolts>:
    1b4e:	9c 01       	movw	r18, r24
    1b50:	22 0f       	add	r18, r18
    1b52:	33 1f       	adc	r19, r19
    1b54:	22 0f       	add	r18, r18
    1b56:	33 1f       	adc	r19, r19
    1b58:	28 0f       	add	r18, r24
    1b5a:	39 1f       	adc	r19, r25
    1b5c:	c9 01       	movw	r24, r18
    1b5e:	08 95       	ret

00001b60 <GetAcceleration>:
    1b60:	cf 93       	push	r28
    1b62:	df 93       	push	r29
    1b64:	ec 01       	movw	r28, r24
    1b66:	80 91 2b 00 	lds	r24, 0x002B
    1b6a:	8f 77       	andi	r24, 0x7F	; 127
    1b6c:	80 93 2b 00 	sts	0x002B, r24
    1b70:	86 e0       	ldi	r24, 0x06	; 6
    1b72:	0e 94 46 08 	call	0x108c	; 0x108c <spiTransceive>
    1b76:	20 97       	sbiw	r28, 0x00	; 0
    1b78:	11 f4       	brne	.+4      	; 0x1b7e <GetAcceleration+0x1e>
    1b7a:	80 e0       	ldi	r24, 0x00	; 0
    1b7c:	0d c0       	rjmp	.+26     	; 0x1b98 <GetAcceleration+0x38>
    1b7e:	c1 30       	cpi	r28, 0x01	; 1
    1b80:	d1 05       	cpc	r29, r1
    1b82:	11 f4       	brne	.+4      	; 0x1b88 <GetAcceleration+0x28>
    1b84:	81 e0       	ldi	r24, 0x01	; 1
    1b86:	08 c0       	rjmp	.+16     	; 0x1b98 <GetAcceleration+0x38>
    1b88:	22 97       	sbiw	r28, 0x02	; 2
    1b8a:	29 f0       	breq	.+10     	; 0x1b96 <GetAcceleration+0x36>
    1b8c:	c0 e0       	ldi	r28, 0x00	; 0
    1b8e:	d0 e0       	ldi	r29, 0x00	; 0
    1b90:	40 e0       	ldi	r20, 0x00	; 0
    1b92:	50 e0       	ldi	r21, 0x00	; 0
    1b94:	0a c0       	rjmp	.+20     	; 0x1baa <GetAcceleration+0x4a>
    1b96:	82 e0       	ldi	r24, 0x02	; 2
    1b98:	0e 94 46 08 	call	0x108c	; 0x108c <spiTransceive>
    1b9c:	c8 2f       	mov	r28, r24
    1b9e:	d0 e0       	ldi	r29, 0x00	; 0
    1ba0:	80 e0       	ldi	r24, 0x00	; 0
    1ba2:	0e 94 46 08 	call	0x108c	; 0x108c <spiTransceive>
    1ba6:	48 2f       	mov	r20, r24
    1ba8:	50 e0       	ldi	r21, 0x00	; 0
    1baa:	80 91 2b 00 	lds	r24, 0x002B
    1bae:	80 68       	ori	r24, 0x80	; 128
    1bb0:	80 93 2b 00 	sts	0x002B, r24
    1bb4:	3c 2f       	mov	r19, r28
    1bb6:	22 27       	eor	r18, r18
    1bb8:	24 2b       	or	r18, r20
    1bba:	35 2b       	or	r19, r21
    1bbc:	c9 01       	movw	r24, r18
    1bbe:	df 91       	pop	r29
    1bc0:	cf 91       	pop	r28
    1bc2:	08 95       	ret

00001bc4 <EncoderCounts>:
    1bc4:	ef 92       	push	r14
    1bc6:	ff 92       	push	r15
    1bc8:	0f 93       	push	r16
    1bca:	1f 93       	push	r17
    1bcc:	00 97       	sbiw	r24, 0x00	; 0
    1bce:	59 f5       	brne	.+86     	; 0x1c26 <EncoderCounts+0x62>
    1bd0:	80 e0       	ldi	r24, 0x00	; 0
    1bd2:	90 e0       	ldi	r25, 0x00	; 0
    1bd4:	0e 94 b6 06 	call	0xd6c	; 0xd6c <encCount>
    1bd8:	60 93 61 02 	sts	0x0261, r22
    1bdc:	70 93 62 02 	sts	0x0262, r23
    1be0:	80 93 63 02 	sts	0x0263, r24
    1be4:	90 93 64 02 	sts	0x0264, r25
    1be8:	20 91 73 01 	lds	r18, 0x0173
    1bec:	30 91 74 01 	lds	r19, 0x0174
    1bf0:	40 91 75 01 	lds	r20, 0x0175
    1bf4:	50 91 76 01 	lds	r21, 0x0176
    1bf8:	7b 01       	movw	r14, r22
    1bfa:	8c 01       	movw	r16, r24
    1bfc:	e2 1a       	sub	r14, r18
    1bfe:	f3 0a       	sbc	r15, r19
    1c00:	04 0b       	sbc	r16, r20
    1c02:	15 0b       	sbc	r17, r21
    1c04:	e0 92 65 02 	sts	0x0265, r14
    1c08:	f0 92 66 02 	sts	0x0266, r15
    1c0c:	00 93 67 02 	sts	0x0267, r16
    1c10:	10 93 68 02 	sts	0x0268, r17
    1c14:	60 93 73 01 	sts	0x0173, r22
    1c18:	70 93 74 01 	sts	0x0174, r23
    1c1c:	80 93 75 01 	sts	0x0175, r24
    1c20:	90 93 76 01 	sts	0x0176, r25
    1c24:	39 c0       	rjmp	.+114    	; 0x1c98 <EncoderCounts+0xd4>
    1c26:	01 97       	sbiw	r24, 0x01	; 1
    1c28:	59 f5       	brne	.+86     	; 0x1c80 <EncoderCounts+0xbc>
    1c2a:	81 e0       	ldi	r24, 0x01	; 1
    1c2c:	90 e0       	ldi	r25, 0x00	; 0
    1c2e:	0e 94 b6 06 	call	0xd6c	; 0xd6c <encCount>
    1c32:	60 93 61 02 	sts	0x0261, r22
    1c36:	70 93 62 02 	sts	0x0262, r23
    1c3a:	80 93 63 02 	sts	0x0263, r24
    1c3e:	90 93 64 02 	sts	0x0264, r25
    1c42:	20 91 77 01 	lds	r18, 0x0177
    1c46:	30 91 78 01 	lds	r19, 0x0178
    1c4a:	40 91 79 01 	lds	r20, 0x0179
    1c4e:	50 91 7a 01 	lds	r21, 0x017A
    1c52:	7b 01       	movw	r14, r22
    1c54:	8c 01       	movw	r16, r24
    1c56:	e2 1a       	sub	r14, r18
    1c58:	f3 0a       	sbc	r15, r19
    1c5a:	04 0b       	sbc	r16, r20
    1c5c:	15 0b       	sbc	r17, r21
    1c5e:	e0 92 65 02 	sts	0x0265, r14
    1c62:	f0 92 66 02 	sts	0x0266, r15
    1c66:	00 93 67 02 	sts	0x0267, r16
    1c6a:	10 93 68 02 	sts	0x0268, r17
    1c6e:	60 93 77 01 	sts	0x0177, r22
    1c72:	70 93 78 01 	sts	0x0178, r23
    1c76:	80 93 79 01 	sts	0x0179, r24
    1c7a:	90 93 7a 01 	sts	0x017A, r25
    1c7e:	0c c0       	rjmp	.+24     	; 0x1c98 <EncoderCounts+0xd4>
    1c80:	8f ef       	ldi	r24, 0xFF	; 255
    1c82:	9f ef       	ldi	r25, 0xFF	; 255
    1c84:	af ef       	ldi	r26, 0xFF	; 255
    1c86:	bf ef       	ldi	r27, 0xFF	; 255
    1c88:	80 93 65 02 	sts	0x0265, r24
    1c8c:	90 93 66 02 	sts	0x0266, r25
    1c90:	a0 93 67 02 	sts	0x0267, r26
    1c94:	b0 93 68 02 	sts	0x0268, r27
    1c98:	80 91 65 02 	lds	r24, 0x0265
    1c9c:	90 91 66 02 	lds	r25, 0x0266
    1ca0:	1f 91       	pop	r17
    1ca2:	0f 91       	pop	r16
    1ca4:	ff 90       	pop	r15
    1ca6:	ef 90       	pop	r14
    1ca8:	08 95       	ret

00001caa <initRBELib>:
    1caa:	8c e4       	ldi	r24, 0x4C	; 76
    1cac:	91 e0       	ldi	r25, 0x01	; 1
    1cae:	90 93 6c 02 	sts	0x026C, r25
    1cb2:	80 93 6b 02 	sts	0x026B, r24
    1cb6:	60 e0       	ldi	r22, 0x00	; 0
    1cb8:	72 ec       	ldi	r23, 0xC2	; 194
    1cba:	81 e0       	ldi	r24, 0x01	; 1
    1cbc:	90 e0       	ldi	r25, 0x00	; 0
    1cbe:	0e 94 67 0e 	call	0x1cce	; 0x1cce <initAltCom>
    1cc2:	08 95       	ret

00001cc4 <printfRBE>:
    1cc4:	0e 94 6d 08 	call	0x10da	; 0x10da <putCharDebug>
    1cc8:	80 e0       	ldi	r24, 0x00	; 0
    1cca:	90 e0       	ldi	r25, 0x00	; 0
    1ccc:	08 95       	ret

00001cce <initAltCom>:
    1cce:	9b 01       	movw	r18, r22
    1cd0:	ac 01       	movw	r20, r24
    1cd2:	84 e0       	ldi	r24, 0x04	; 4
    1cd4:	22 0f       	add	r18, r18
    1cd6:	33 1f       	adc	r19, r19
    1cd8:	44 1f       	adc	r20, r20
    1cda:	55 1f       	adc	r21, r21
    1cdc:	8a 95       	dec	r24
    1cde:	d1 f7       	brne	.-12     	; 0x1cd4 <initAltCom+0x6>
    1ce0:	60 e0       	ldi	r22, 0x00	; 0
    1ce2:	70 e4       	ldi	r23, 0x40	; 64
    1ce4:	89 e1       	ldi	r24, 0x19	; 25
    1ce6:	91 e0       	ldi	r25, 0x01	; 1
    1ce8:	0e 94 ef 12 	call	0x25de	; 0x25de <__udivmodsi4>
    1cec:	21 50       	subi	r18, 0x01	; 1
    1cee:	30 40       	sbci	r19, 0x00	; 0
    1cf0:	30 93 c5 00 	sts	0x00C5, r19
    1cf4:	20 93 c4 00 	sts	0x00C4, r18
    1cf8:	88 e1       	ldi	r24, 0x18	; 24
    1cfa:	80 93 c1 00 	sts	0x00C1, r24
    1cfe:	86 e0       	ldi	r24, 0x06	; 6
    1d00:	80 93 c2 00 	sts	0x00C2, r24
    1d04:	08 95       	ret

00001d06 <setCharDebug>:
    1d06:	98 2f       	mov	r25, r24
    1d08:	80 91 c0 00 	lds	r24, 0x00C0
    1d0c:	85 ff       	sbrs	r24, 5
    1d0e:	fc cf       	rjmp	.-8      	; 0x1d08 <setCharDebug+0x2>
    1d10:	90 93 c6 00 	sts	0x00C6, r25
    1d14:	08 95       	ret

00001d16 <coPrintf>:
    1d16:	fc 01       	movw	r30, r24
    1d18:	07 c0       	rjmp	.+14     	; 0x1d28 <coPrintf+0x12>
    1d1a:	80 91 c0 00 	lds	r24, 0x00C0
    1d1e:	85 ff       	sbrs	r24, 5
    1d20:	fc cf       	rjmp	.-8      	; 0x1d1a <coPrintf+0x4>
    1d22:	90 93 c6 00 	sts	0x00C6, r25
    1d26:	31 96       	adiw	r30, 0x01	; 1
    1d28:	90 81       	ld	r25, Z
    1d2a:	99 23       	and	r25, r25
    1d2c:	b1 f7       	brne	.-20     	; 0x1d1a <coPrintf+0x4>
    1d2e:	08 95       	ret

00001d30 <setServo>:
    1d30:	0f 93       	push	r16
    1d32:	1f 93       	push	r17
    1d34:	df 93       	push	r29
    1d36:	cf 93       	push	r28
    1d38:	cd b7       	in	r28, 0x3d	; 61
    1d3a:	de b7       	in	r29, 0x3e	; 62
    1d3c:	64 97       	sbiw	r28, 0x14	; 20
    1d3e:	0f b6       	in	r0, 0x3f	; 63
    1d40:	f8 94       	cli
    1d42:	de bf       	out	0x3e, r29	; 62
    1d44:	0f be       	out	0x3f, r0	; 63
    1d46:	cd bf       	out	0x3d, r28	; 61
    1d48:	2d b7       	in	r18, 0x3d	; 61
    1d4a:	3e b7       	in	r19, 0x3e	; 62
    1d4c:	28 50       	subi	r18, 0x08	; 8
    1d4e:	30 40       	sbci	r19, 0x00	; 0
    1d50:	0f b6       	in	r0, 0x3f	; 63
    1d52:	f8 94       	cli
    1d54:	3e bf       	out	0x3e, r19	; 62
    1d56:	0f be       	out	0x3f, r0	; 63
    1d58:	2d bf       	out	0x3d, r18	; 61
    1d5a:	ed b7       	in	r30, 0x3d	; 61
    1d5c:	fe b7       	in	r31, 0x3e	; 62
    1d5e:	31 96       	adiw	r30, 0x01	; 1
    1d60:	8e 01       	movw	r16, r28
    1d62:	0f 5f       	subi	r16, 0xFF	; 255
    1d64:	1f 4f       	sbci	r17, 0xFF	; 255
    1d66:	ad b7       	in	r26, 0x3d	; 61
    1d68:	be b7       	in	r27, 0x3e	; 62
    1d6a:	12 96       	adiw	r26, 0x02	; 2
    1d6c:	1c 93       	st	X, r17
    1d6e:	0e 93       	st	-X, r16
    1d70:	11 97       	sbiw	r26, 0x01	; 1
    1d72:	21 e1       	ldi	r18, 0x11	; 17
    1d74:	31 e0       	ldi	r19, 0x01	; 1
    1d76:	33 83       	std	Z+3, r19	; 0x03
    1d78:	22 83       	std	Z+2, r18	; 0x02
    1d7a:	95 83       	std	Z+5, r25	; 0x05
    1d7c:	84 83       	std	Z+4, r24	; 0x04
    1d7e:	77 83       	std	Z+7, r23	; 0x07
    1d80:	66 83       	std	Z+6, r22	; 0x06
    1d82:	0e 94 8b 14 	call	0x2916	; 0x2916 <sprintf>
    1d86:	2d b7       	in	r18, 0x3d	; 61
    1d88:	3e b7       	in	r19, 0x3e	; 62
    1d8a:	28 5f       	subi	r18, 0xF8	; 248
    1d8c:	3f 4f       	sbci	r19, 0xFF	; 255
    1d8e:	0f b6       	in	r0, 0x3f	; 63
    1d90:	f8 94       	cli
    1d92:	3e bf       	out	0x3e, r19	; 62
    1d94:	0f be       	out	0x3f, r0	; 63
    1d96:	2d bf       	out	0x3d, r18	; 61
    1d98:	c8 01       	movw	r24, r16
    1d9a:	0e 94 8b 0e 	call	0x1d16	; 0x1d16 <coPrintf>
    1d9e:	64 96       	adiw	r28, 0x14	; 20
    1da0:	0f b6       	in	r0, 0x3f	; 63
    1da2:	f8 94       	cli
    1da4:	de bf       	out	0x3e, r29	; 62
    1da6:	0f be       	out	0x3f, r0	; 63
    1da8:	cd bf       	out	0x3d, r28	; 61
    1daa:	cf 91       	pop	r28
    1dac:	df 91       	pop	r29
    1dae:	1f 91       	pop	r17
    1db0:	0f 91       	pop	r16
    1db2:	08 95       	ret

00001db4 <__subsf3>:
    1db4:	50 58       	subi	r21, 0x80	; 128

00001db6 <__addsf3>:
    1db6:	bb 27       	eor	r27, r27
    1db8:	aa 27       	eor	r26, r26
    1dba:	0e d0       	rcall	.+28     	; 0x1dd8 <__addsf3x>
    1dbc:	d4 c1       	rjmp	.+936    	; 0x2166 <__fp_round>
    1dbe:	c5 d1       	rcall	.+906    	; 0x214a <__fp_pscA>
    1dc0:	30 f0       	brcs	.+12     	; 0x1dce <__addsf3+0x18>
    1dc2:	ca d1       	rcall	.+916    	; 0x2158 <__fp_pscB>
    1dc4:	20 f0       	brcs	.+8      	; 0x1dce <__addsf3+0x18>
    1dc6:	31 f4       	brne	.+12     	; 0x1dd4 <__addsf3+0x1e>
    1dc8:	9f 3f       	cpi	r25, 0xFF	; 255
    1dca:	11 f4       	brne	.+4      	; 0x1dd0 <__addsf3+0x1a>
    1dcc:	1e f4       	brtc	.+6      	; 0x1dd4 <__addsf3+0x1e>
    1dce:	95 c1       	rjmp	.+810    	; 0x20fa <__fp_nan>
    1dd0:	0e f4       	brtc	.+2      	; 0x1dd4 <__addsf3+0x1e>
    1dd2:	e0 95       	com	r30
    1dd4:	e7 fb       	bst	r30, 7
    1dd6:	8b c1       	rjmp	.+790    	; 0x20ee <__fp_inf>

00001dd8 <__addsf3x>:
    1dd8:	e9 2f       	mov	r30, r25
    1dda:	d6 d1       	rcall	.+940    	; 0x2188 <__fp_split3>
    1ddc:	80 f3       	brcs	.-32     	; 0x1dbe <__addsf3+0x8>
    1dde:	ba 17       	cp	r27, r26
    1de0:	62 07       	cpc	r22, r18
    1de2:	73 07       	cpc	r23, r19
    1de4:	84 07       	cpc	r24, r20
    1de6:	95 07       	cpc	r25, r21
    1de8:	18 f0       	brcs	.+6      	; 0x1df0 <__addsf3x+0x18>
    1dea:	71 f4       	brne	.+28     	; 0x1e08 <__addsf3x+0x30>
    1dec:	9e f5       	brtc	.+102    	; 0x1e54 <__addsf3x+0x7c>
    1dee:	ee c1       	rjmp	.+988    	; 0x21cc <__fp_zero>
    1df0:	0e f4       	brtc	.+2      	; 0x1df4 <__addsf3x+0x1c>
    1df2:	e0 95       	com	r30
    1df4:	0b 2e       	mov	r0, r27
    1df6:	ba 2f       	mov	r27, r26
    1df8:	a0 2d       	mov	r26, r0
    1dfa:	0b 01       	movw	r0, r22
    1dfc:	b9 01       	movw	r22, r18
    1dfe:	90 01       	movw	r18, r0
    1e00:	0c 01       	movw	r0, r24
    1e02:	ca 01       	movw	r24, r20
    1e04:	a0 01       	movw	r20, r0
    1e06:	11 24       	eor	r1, r1
    1e08:	ff 27       	eor	r31, r31
    1e0a:	59 1b       	sub	r21, r25
    1e0c:	99 f0       	breq	.+38     	; 0x1e34 <__addsf3x+0x5c>
    1e0e:	59 3f       	cpi	r21, 0xF9	; 249
    1e10:	50 f4       	brcc	.+20     	; 0x1e26 <__addsf3x+0x4e>
    1e12:	50 3e       	cpi	r21, 0xE0	; 224
    1e14:	68 f1       	brcs	.+90     	; 0x1e70 <__addsf3x+0x98>
    1e16:	1a 16       	cp	r1, r26
    1e18:	f0 40       	sbci	r31, 0x00	; 0
    1e1a:	a2 2f       	mov	r26, r18
    1e1c:	23 2f       	mov	r18, r19
    1e1e:	34 2f       	mov	r19, r20
    1e20:	44 27       	eor	r20, r20
    1e22:	58 5f       	subi	r21, 0xF8	; 248
    1e24:	f3 cf       	rjmp	.-26     	; 0x1e0c <__addsf3x+0x34>
    1e26:	46 95       	lsr	r20
    1e28:	37 95       	ror	r19
    1e2a:	27 95       	ror	r18
    1e2c:	a7 95       	ror	r26
    1e2e:	f0 40       	sbci	r31, 0x00	; 0
    1e30:	53 95       	inc	r21
    1e32:	c9 f7       	brne	.-14     	; 0x1e26 <__addsf3x+0x4e>
    1e34:	7e f4       	brtc	.+30     	; 0x1e54 <__addsf3x+0x7c>
    1e36:	1f 16       	cp	r1, r31
    1e38:	ba 0b       	sbc	r27, r26
    1e3a:	62 0b       	sbc	r22, r18
    1e3c:	73 0b       	sbc	r23, r19
    1e3e:	84 0b       	sbc	r24, r20
    1e40:	ba f0       	brmi	.+46     	; 0x1e70 <__addsf3x+0x98>
    1e42:	91 50       	subi	r25, 0x01	; 1
    1e44:	a1 f0       	breq	.+40     	; 0x1e6e <__addsf3x+0x96>
    1e46:	ff 0f       	add	r31, r31
    1e48:	bb 1f       	adc	r27, r27
    1e4a:	66 1f       	adc	r22, r22
    1e4c:	77 1f       	adc	r23, r23
    1e4e:	88 1f       	adc	r24, r24
    1e50:	c2 f7       	brpl	.-16     	; 0x1e42 <__addsf3x+0x6a>
    1e52:	0e c0       	rjmp	.+28     	; 0x1e70 <__addsf3x+0x98>
    1e54:	ba 0f       	add	r27, r26
    1e56:	62 1f       	adc	r22, r18
    1e58:	73 1f       	adc	r23, r19
    1e5a:	84 1f       	adc	r24, r20
    1e5c:	48 f4       	brcc	.+18     	; 0x1e70 <__addsf3x+0x98>
    1e5e:	87 95       	ror	r24
    1e60:	77 95       	ror	r23
    1e62:	67 95       	ror	r22
    1e64:	b7 95       	ror	r27
    1e66:	f7 95       	ror	r31
    1e68:	9e 3f       	cpi	r25, 0xFE	; 254
    1e6a:	08 f0       	brcs	.+2      	; 0x1e6e <__addsf3x+0x96>
    1e6c:	b3 cf       	rjmp	.-154    	; 0x1dd4 <__addsf3+0x1e>
    1e6e:	93 95       	inc	r25
    1e70:	88 0f       	add	r24, r24
    1e72:	08 f0       	brcs	.+2      	; 0x1e76 <__addsf3x+0x9e>
    1e74:	99 27       	eor	r25, r25
    1e76:	ee 0f       	add	r30, r30
    1e78:	97 95       	ror	r25
    1e7a:	87 95       	ror	r24
    1e7c:	08 95       	ret
    1e7e:	65 d1       	rcall	.+714    	; 0x214a <__fp_pscA>
    1e80:	58 f0       	brcs	.+22     	; 0x1e98 <__addsf3x+0xc0>
    1e82:	80 e8       	ldi	r24, 0x80	; 128
    1e84:	91 e0       	ldi	r25, 0x01	; 1
    1e86:	09 f4       	brne	.+2      	; 0x1e8a <__addsf3x+0xb2>
    1e88:	9e ef       	ldi	r25, 0xFE	; 254
    1e8a:	66 d1       	rcall	.+716    	; 0x2158 <__fp_pscB>
    1e8c:	28 f0       	brcs	.+10     	; 0x1e98 <__addsf3x+0xc0>
    1e8e:	40 e8       	ldi	r20, 0x80	; 128
    1e90:	51 e0       	ldi	r21, 0x01	; 1
    1e92:	59 f4       	brne	.+22     	; 0x1eaa <atan2+0xe>
    1e94:	5e ef       	ldi	r21, 0xFE	; 254
    1e96:	09 c0       	rjmp	.+18     	; 0x1eaa <atan2+0xe>
    1e98:	30 c1       	rjmp	.+608    	; 0x20fa <__fp_nan>
    1e9a:	98 c1       	rjmp	.+816    	; 0x21cc <__fp_zero>

00001e9c <atan2>:
    1e9c:	e9 2f       	mov	r30, r25
    1e9e:	e0 78       	andi	r30, 0x80	; 128
    1ea0:	73 d1       	rcall	.+742    	; 0x2188 <__fp_split3>
    1ea2:	68 f3       	brcs	.-38     	; 0x1e7e <__addsf3x+0xa6>
    1ea4:	09 2e       	mov	r0, r25
    1ea6:	05 2a       	or	r0, r21
    1ea8:	c1 f3       	breq	.-16     	; 0x1e9a <__addsf3x+0xc2>
    1eaa:	26 17       	cp	r18, r22
    1eac:	37 07       	cpc	r19, r23
    1eae:	48 07       	cpc	r20, r24
    1eb0:	59 07       	cpc	r21, r25
    1eb2:	38 f0       	brcs	.+14     	; 0x1ec2 <atan2+0x26>
    1eb4:	0e 2e       	mov	r0, r30
    1eb6:	07 f8       	bld	r0, 7
    1eb8:	e0 25       	eor	r30, r0
    1eba:	69 f0       	breq	.+26     	; 0x1ed6 <atan2+0x3a>
    1ebc:	e0 25       	eor	r30, r0
    1ebe:	e0 64       	ori	r30, 0x40	; 64
    1ec0:	0a c0       	rjmp	.+20     	; 0x1ed6 <atan2+0x3a>
    1ec2:	ef 63       	ori	r30, 0x3F	; 63
    1ec4:	07 f8       	bld	r0, 7
    1ec6:	00 94       	com	r0
    1ec8:	07 fa       	bst	r0, 7
    1eca:	db 01       	movw	r26, r22
    1ecc:	b9 01       	movw	r22, r18
    1ece:	9d 01       	movw	r18, r26
    1ed0:	dc 01       	movw	r26, r24
    1ed2:	ca 01       	movw	r24, r20
    1ed4:	ad 01       	movw	r20, r26
    1ed6:	ef 93       	push	r30
    1ed8:	43 d0       	rcall	.+134    	; 0x1f60 <__divsf3_pse>
    1eda:	45 d1       	rcall	.+650    	; 0x2166 <__fp_round>
    1edc:	0a d0       	rcall	.+20     	; 0x1ef2 <atan>
    1ede:	5f 91       	pop	r21
    1ee0:	55 23       	and	r21, r21
    1ee2:	31 f0       	breq	.+12     	; 0x1ef0 <atan2+0x54>
    1ee4:	2b ed       	ldi	r18, 0xDB	; 219
    1ee6:	3f e0       	ldi	r19, 0x0F	; 15
    1ee8:	49 e4       	ldi	r20, 0x49	; 73
    1eea:	50 fd       	sbrc	r21, 0
    1eec:	49 ec       	ldi	r20, 0xC9	; 201
    1eee:	63 cf       	rjmp	.-314    	; 0x1db6 <__addsf3>
    1ef0:	08 95       	ret

00001ef2 <atan>:
    1ef2:	df 93       	push	r29
    1ef4:	dd 27       	eor	r29, r29
    1ef6:	b9 2f       	mov	r27, r25
    1ef8:	bf 77       	andi	r27, 0x7F	; 127
    1efa:	40 e8       	ldi	r20, 0x80	; 128
    1efc:	5f e3       	ldi	r21, 0x3F	; 63
    1efe:	16 16       	cp	r1, r22
    1f00:	17 06       	cpc	r1, r23
    1f02:	48 07       	cpc	r20, r24
    1f04:	5b 07       	cpc	r21, r27
    1f06:	10 f4       	brcc	.+4      	; 0x1f0c <atan+0x1a>
    1f08:	d9 2f       	mov	r29, r25
    1f0a:	67 d1       	rcall	.+718    	; 0x21da <inverse>
    1f0c:	9f 93       	push	r25
    1f0e:	8f 93       	push	r24
    1f10:	7f 93       	push	r23
    1f12:	6f 93       	push	r22
    1f14:	5a d2       	rcall	.+1204   	; 0x23ca <square>
    1f16:	ec e7       	ldi	r30, 0x7C	; 124
    1f18:	f0 e0       	ldi	r31, 0x00	; 0
    1f1a:	f2 d0       	rcall	.+484    	; 0x2100 <__fp_powser>
    1f1c:	24 d1       	rcall	.+584    	; 0x2166 <__fp_round>
    1f1e:	2f 91       	pop	r18
    1f20:	3f 91       	pop	r19
    1f22:	4f 91       	pop	r20
    1f24:	5f 91       	pop	r21
    1f26:	6c d1       	rcall	.+728    	; 0x2200 <__mulsf3x>
    1f28:	dd 23       	and	r29, r29
    1f2a:	49 f0       	breq	.+18     	; 0x1f3e <atan+0x4c>
    1f2c:	90 58       	subi	r25, 0x80	; 128
    1f2e:	a2 ea       	ldi	r26, 0xA2	; 162
    1f30:	2a ed       	ldi	r18, 0xDA	; 218
    1f32:	3f e0       	ldi	r19, 0x0F	; 15
    1f34:	49 ec       	ldi	r20, 0xC9	; 201
    1f36:	5f e3       	ldi	r21, 0x3F	; 63
    1f38:	d0 78       	andi	r29, 0x80	; 128
    1f3a:	5d 27       	eor	r21, r29
    1f3c:	4d df       	rcall	.-358    	; 0x1dd8 <__addsf3x>
    1f3e:	df 91       	pop	r29
    1f40:	12 c1       	rjmp	.+548    	; 0x2166 <__fp_round>

00001f42 <__divsf3>:
    1f42:	0c d0       	rcall	.+24     	; 0x1f5c <__divsf3x>
    1f44:	10 c1       	rjmp	.+544    	; 0x2166 <__fp_round>
    1f46:	08 d1       	rcall	.+528    	; 0x2158 <__fp_pscB>
    1f48:	40 f0       	brcs	.+16     	; 0x1f5a <__divsf3+0x18>
    1f4a:	ff d0       	rcall	.+510    	; 0x214a <__fp_pscA>
    1f4c:	30 f0       	brcs	.+12     	; 0x1f5a <__divsf3+0x18>
    1f4e:	21 f4       	brne	.+8      	; 0x1f58 <__divsf3+0x16>
    1f50:	5f 3f       	cpi	r21, 0xFF	; 255
    1f52:	19 f0       	breq	.+6      	; 0x1f5a <__divsf3+0x18>
    1f54:	cc c0       	rjmp	.+408    	; 0x20ee <__fp_inf>
    1f56:	51 11       	cpse	r21, r1
    1f58:	3a c1       	rjmp	.+628    	; 0x21ce <__fp_szero>
    1f5a:	cf c0       	rjmp	.+414    	; 0x20fa <__fp_nan>

00001f5c <__divsf3x>:
    1f5c:	15 d1       	rcall	.+554    	; 0x2188 <__fp_split3>
    1f5e:	98 f3       	brcs	.-26     	; 0x1f46 <__divsf3+0x4>

00001f60 <__divsf3_pse>:
    1f60:	99 23       	and	r25, r25
    1f62:	c9 f3       	breq	.-14     	; 0x1f56 <__divsf3+0x14>
    1f64:	55 23       	and	r21, r21
    1f66:	b1 f3       	breq	.-20     	; 0x1f54 <__divsf3+0x12>
    1f68:	95 1b       	sub	r25, r21
    1f6a:	55 0b       	sbc	r21, r21
    1f6c:	bb 27       	eor	r27, r27
    1f6e:	aa 27       	eor	r26, r26
    1f70:	62 17       	cp	r22, r18
    1f72:	73 07       	cpc	r23, r19
    1f74:	84 07       	cpc	r24, r20
    1f76:	38 f0       	brcs	.+14     	; 0x1f86 <__divsf3_pse+0x26>
    1f78:	9f 5f       	subi	r25, 0xFF	; 255
    1f7a:	5f 4f       	sbci	r21, 0xFF	; 255
    1f7c:	22 0f       	add	r18, r18
    1f7e:	33 1f       	adc	r19, r19
    1f80:	44 1f       	adc	r20, r20
    1f82:	aa 1f       	adc	r26, r26
    1f84:	a9 f3       	breq	.-22     	; 0x1f70 <__divsf3_pse+0x10>
    1f86:	33 d0       	rcall	.+102    	; 0x1fee <__divsf3_pse+0x8e>
    1f88:	0e 2e       	mov	r0, r30
    1f8a:	3a f0       	brmi	.+14     	; 0x1f9a <__divsf3_pse+0x3a>
    1f8c:	e0 e8       	ldi	r30, 0x80	; 128
    1f8e:	30 d0       	rcall	.+96     	; 0x1ff0 <__divsf3_pse+0x90>
    1f90:	91 50       	subi	r25, 0x01	; 1
    1f92:	50 40       	sbci	r21, 0x00	; 0
    1f94:	e6 95       	lsr	r30
    1f96:	00 1c       	adc	r0, r0
    1f98:	ca f7       	brpl	.-14     	; 0x1f8c <__divsf3_pse+0x2c>
    1f9a:	29 d0       	rcall	.+82     	; 0x1fee <__divsf3_pse+0x8e>
    1f9c:	fe 2f       	mov	r31, r30
    1f9e:	27 d0       	rcall	.+78     	; 0x1fee <__divsf3_pse+0x8e>
    1fa0:	66 0f       	add	r22, r22
    1fa2:	77 1f       	adc	r23, r23
    1fa4:	88 1f       	adc	r24, r24
    1fa6:	bb 1f       	adc	r27, r27
    1fa8:	26 17       	cp	r18, r22
    1faa:	37 07       	cpc	r19, r23
    1fac:	48 07       	cpc	r20, r24
    1fae:	ab 07       	cpc	r26, r27
    1fb0:	b0 e8       	ldi	r27, 0x80	; 128
    1fb2:	09 f0       	breq	.+2      	; 0x1fb6 <__divsf3_pse+0x56>
    1fb4:	bb 0b       	sbc	r27, r27
    1fb6:	80 2d       	mov	r24, r0
    1fb8:	bf 01       	movw	r22, r30
    1fba:	ff 27       	eor	r31, r31
    1fbc:	93 58       	subi	r25, 0x83	; 131
    1fbe:	5f 4f       	sbci	r21, 0xFF	; 255
    1fc0:	2a f0       	brmi	.+10     	; 0x1fcc <__divsf3_pse+0x6c>
    1fc2:	9e 3f       	cpi	r25, 0xFE	; 254
    1fc4:	51 05       	cpc	r21, r1
    1fc6:	68 f0       	brcs	.+26     	; 0x1fe2 <__divsf3_pse+0x82>
    1fc8:	92 c0       	rjmp	.+292    	; 0x20ee <__fp_inf>
    1fca:	01 c1       	rjmp	.+514    	; 0x21ce <__fp_szero>
    1fcc:	5f 3f       	cpi	r21, 0xFF	; 255
    1fce:	ec f3       	brlt	.-6      	; 0x1fca <__divsf3_pse+0x6a>
    1fd0:	98 3e       	cpi	r25, 0xE8	; 232
    1fd2:	dc f3       	brlt	.-10     	; 0x1fca <__divsf3_pse+0x6a>
    1fd4:	86 95       	lsr	r24
    1fd6:	77 95       	ror	r23
    1fd8:	67 95       	ror	r22
    1fda:	b7 95       	ror	r27
    1fdc:	f7 95       	ror	r31
    1fde:	9f 5f       	subi	r25, 0xFF	; 255
    1fe0:	c9 f7       	brne	.-14     	; 0x1fd4 <__divsf3_pse+0x74>
    1fe2:	88 0f       	add	r24, r24
    1fe4:	91 1d       	adc	r25, r1
    1fe6:	96 95       	lsr	r25
    1fe8:	87 95       	ror	r24
    1fea:	97 f9       	bld	r25, 7
    1fec:	08 95       	ret
    1fee:	e1 e0       	ldi	r30, 0x01	; 1
    1ff0:	66 0f       	add	r22, r22
    1ff2:	77 1f       	adc	r23, r23
    1ff4:	88 1f       	adc	r24, r24
    1ff6:	bb 1f       	adc	r27, r27
    1ff8:	62 17       	cp	r22, r18
    1ffa:	73 07       	cpc	r23, r19
    1ffc:	84 07       	cpc	r24, r20
    1ffe:	ba 07       	cpc	r27, r26
    2000:	20 f0       	brcs	.+8      	; 0x200a <__divsf3_pse+0xaa>
    2002:	62 1b       	sub	r22, r18
    2004:	73 0b       	sbc	r23, r19
    2006:	84 0b       	sbc	r24, r20
    2008:	ba 0b       	sbc	r27, r26
    200a:	ee 1f       	adc	r30, r30
    200c:	88 f7       	brcc	.-30     	; 0x1ff0 <__divsf3_pse+0x90>
    200e:	e0 95       	com	r30
    2010:	08 95       	ret

00002012 <__fixsfsi>:
    2012:	04 d0       	rcall	.+8      	; 0x201c <__fixunssfsi>
    2014:	68 94       	set
    2016:	b1 11       	cpse	r27, r1
    2018:	da c0       	rjmp	.+436    	; 0x21ce <__fp_szero>
    201a:	08 95       	ret

0000201c <__fixunssfsi>:
    201c:	bd d0       	rcall	.+378    	; 0x2198 <__fp_splitA>
    201e:	88 f0       	brcs	.+34     	; 0x2042 <__fixunssfsi+0x26>
    2020:	9f 57       	subi	r25, 0x7F	; 127
    2022:	90 f0       	brcs	.+36     	; 0x2048 <__fixunssfsi+0x2c>
    2024:	b9 2f       	mov	r27, r25
    2026:	99 27       	eor	r25, r25
    2028:	b7 51       	subi	r27, 0x17	; 23
    202a:	a0 f0       	brcs	.+40     	; 0x2054 <__fixunssfsi+0x38>
    202c:	d1 f0       	breq	.+52     	; 0x2062 <__fixunssfsi+0x46>
    202e:	66 0f       	add	r22, r22
    2030:	77 1f       	adc	r23, r23
    2032:	88 1f       	adc	r24, r24
    2034:	99 1f       	adc	r25, r25
    2036:	1a f0       	brmi	.+6      	; 0x203e <__fixunssfsi+0x22>
    2038:	ba 95       	dec	r27
    203a:	c9 f7       	brne	.-14     	; 0x202e <__fixunssfsi+0x12>
    203c:	12 c0       	rjmp	.+36     	; 0x2062 <__fixunssfsi+0x46>
    203e:	b1 30       	cpi	r27, 0x01	; 1
    2040:	81 f0       	breq	.+32     	; 0x2062 <__fixunssfsi+0x46>
    2042:	c4 d0       	rcall	.+392    	; 0x21cc <__fp_zero>
    2044:	b1 e0       	ldi	r27, 0x01	; 1
    2046:	08 95       	ret
    2048:	c1 c0       	rjmp	.+386    	; 0x21cc <__fp_zero>
    204a:	67 2f       	mov	r22, r23
    204c:	78 2f       	mov	r23, r24
    204e:	88 27       	eor	r24, r24
    2050:	b8 5f       	subi	r27, 0xF8	; 248
    2052:	39 f0       	breq	.+14     	; 0x2062 <__fixunssfsi+0x46>
    2054:	b9 3f       	cpi	r27, 0xF9	; 249
    2056:	cc f3       	brlt	.-14     	; 0x204a <__fixunssfsi+0x2e>
    2058:	86 95       	lsr	r24
    205a:	77 95       	ror	r23
    205c:	67 95       	ror	r22
    205e:	b3 95       	inc	r27
    2060:	d9 f7       	brne	.-10     	; 0x2058 <__fixunssfsi+0x3c>
    2062:	3e f4       	brtc	.+14     	; 0x2072 <__fixunssfsi+0x56>
    2064:	90 95       	com	r25
    2066:	80 95       	com	r24
    2068:	70 95       	com	r23
    206a:	61 95       	neg	r22
    206c:	7f 4f       	sbci	r23, 0xFF	; 255
    206e:	8f 4f       	sbci	r24, 0xFF	; 255
    2070:	9f 4f       	sbci	r25, 0xFF	; 255
    2072:	08 95       	ret

00002074 <__floatunsisf>:
    2074:	e8 94       	clt
    2076:	09 c0       	rjmp	.+18     	; 0x208a <__floatsisf+0x12>

00002078 <__floatsisf>:
    2078:	97 fb       	bst	r25, 7
    207a:	3e f4       	brtc	.+14     	; 0x208a <__floatsisf+0x12>
    207c:	90 95       	com	r25
    207e:	80 95       	com	r24
    2080:	70 95       	com	r23
    2082:	61 95       	neg	r22
    2084:	7f 4f       	sbci	r23, 0xFF	; 255
    2086:	8f 4f       	sbci	r24, 0xFF	; 255
    2088:	9f 4f       	sbci	r25, 0xFF	; 255
    208a:	99 23       	and	r25, r25
    208c:	a9 f0       	breq	.+42     	; 0x20b8 <__floatsisf+0x40>
    208e:	f9 2f       	mov	r31, r25
    2090:	96 e9       	ldi	r25, 0x96	; 150
    2092:	bb 27       	eor	r27, r27
    2094:	93 95       	inc	r25
    2096:	f6 95       	lsr	r31
    2098:	87 95       	ror	r24
    209a:	77 95       	ror	r23
    209c:	67 95       	ror	r22
    209e:	b7 95       	ror	r27
    20a0:	f1 11       	cpse	r31, r1
    20a2:	f8 cf       	rjmp	.-16     	; 0x2094 <__floatsisf+0x1c>
    20a4:	fa f4       	brpl	.+62     	; 0x20e4 <__floatsisf+0x6c>
    20a6:	bb 0f       	add	r27, r27
    20a8:	11 f4       	brne	.+4      	; 0x20ae <__floatsisf+0x36>
    20aa:	60 ff       	sbrs	r22, 0
    20ac:	1b c0       	rjmp	.+54     	; 0x20e4 <__floatsisf+0x6c>
    20ae:	6f 5f       	subi	r22, 0xFF	; 255
    20b0:	7f 4f       	sbci	r23, 0xFF	; 255
    20b2:	8f 4f       	sbci	r24, 0xFF	; 255
    20b4:	9f 4f       	sbci	r25, 0xFF	; 255
    20b6:	16 c0       	rjmp	.+44     	; 0x20e4 <__floatsisf+0x6c>
    20b8:	88 23       	and	r24, r24
    20ba:	11 f0       	breq	.+4      	; 0x20c0 <__floatsisf+0x48>
    20bc:	96 e9       	ldi	r25, 0x96	; 150
    20be:	11 c0       	rjmp	.+34     	; 0x20e2 <__floatsisf+0x6a>
    20c0:	77 23       	and	r23, r23
    20c2:	21 f0       	breq	.+8      	; 0x20cc <__floatsisf+0x54>
    20c4:	9e e8       	ldi	r25, 0x8E	; 142
    20c6:	87 2f       	mov	r24, r23
    20c8:	76 2f       	mov	r23, r22
    20ca:	05 c0       	rjmp	.+10     	; 0x20d6 <__floatsisf+0x5e>
    20cc:	66 23       	and	r22, r22
    20ce:	71 f0       	breq	.+28     	; 0x20ec <__floatsisf+0x74>
    20d0:	96 e8       	ldi	r25, 0x86	; 134
    20d2:	86 2f       	mov	r24, r22
    20d4:	70 e0       	ldi	r23, 0x00	; 0
    20d6:	60 e0       	ldi	r22, 0x00	; 0
    20d8:	2a f0       	brmi	.+10     	; 0x20e4 <__floatsisf+0x6c>
    20da:	9a 95       	dec	r25
    20dc:	66 0f       	add	r22, r22
    20de:	77 1f       	adc	r23, r23
    20e0:	88 1f       	adc	r24, r24
    20e2:	da f7       	brpl	.-10     	; 0x20da <__floatsisf+0x62>
    20e4:	88 0f       	add	r24, r24
    20e6:	96 95       	lsr	r25
    20e8:	87 95       	ror	r24
    20ea:	97 f9       	bld	r25, 7
    20ec:	08 95       	ret

000020ee <__fp_inf>:
    20ee:	97 f9       	bld	r25, 7
    20f0:	9f 67       	ori	r25, 0x7F	; 127
    20f2:	80 e8       	ldi	r24, 0x80	; 128
    20f4:	70 e0       	ldi	r23, 0x00	; 0
    20f6:	60 e0       	ldi	r22, 0x00	; 0
    20f8:	08 95       	ret

000020fa <__fp_nan>:
    20fa:	9f ef       	ldi	r25, 0xFF	; 255
    20fc:	80 ec       	ldi	r24, 0xC0	; 192
    20fe:	08 95       	ret

00002100 <__fp_powser>:
    2100:	df 93       	push	r29
    2102:	cf 93       	push	r28
    2104:	1f 93       	push	r17
    2106:	0f 93       	push	r16
    2108:	ff 92       	push	r15
    210a:	ef 92       	push	r14
    210c:	df 92       	push	r13
    210e:	7b 01       	movw	r14, r22
    2110:	8c 01       	movw	r16, r24
    2112:	68 94       	set
    2114:	05 c0       	rjmp	.+10     	; 0x2120 <__fp_powser+0x20>
    2116:	da 2e       	mov	r13, r26
    2118:	ef 01       	movw	r28, r30
    211a:	72 d0       	rcall	.+228    	; 0x2200 <__mulsf3x>
    211c:	fe 01       	movw	r30, r28
    211e:	e8 94       	clt
    2120:	a5 91       	lpm	r26, Z+
    2122:	25 91       	lpm	r18, Z+
    2124:	35 91       	lpm	r19, Z+
    2126:	45 91       	lpm	r20, Z+
    2128:	55 91       	lpm	r21, Z+
    212a:	ae f3       	brts	.-22     	; 0x2116 <__fp_powser+0x16>
    212c:	ef 01       	movw	r28, r30
    212e:	54 de       	rcall	.-856    	; 0x1dd8 <__addsf3x>
    2130:	fe 01       	movw	r30, r28
    2132:	97 01       	movw	r18, r14
    2134:	a8 01       	movw	r20, r16
    2136:	da 94       	dec	r13
    2138:	79 f7       	brne	.-34     	; 0x2118 <__fp_powser+0x18>
    213a:	df 90       	pop	r13
    213c:	ef 90       	pop	r14
    213e:	ff 90       	pop	r15
    2140:	0f 91       	pop	r16
    2142:	1f 91       	pop	r17
    2144:	cf 91       	pop	r28
    2146:	df 91       	pop	r29
    2148:	08 95       	ret

0000214a <__fp_pscA>:
    214a:	00 24       	eor	r0, r0
    214c:	0a 94       	dec	r0
    214e:	16 16       	cp	r1, r22
    2150:	17 06       	cpc	r1, r23
    2152:	18 06       	cpc	r1, r24
    2154:	09 06       	cpc	r0, r25
    2156:	08 95       	ret

00002158 <__fp_pscB>:
    2158:	00 24       	eor	r0, r0
    215a:	0a 94       	dec	r0
    215c:	12 16       	cp	r1, r18
    215e:	13 06       	cpc	r1, r19
    2160:	14 06       	cpc	r1, r20
    2162:	05 06       	cpc	r0, r21
    2164:	08 95       	ret

00002166 <__fp_round>:
    2166:	09 2e       	mov	r0, r25
    2168:	03 94       	inc	r0
    216a:	00 0c       	add	r0, r0
    216c:	11 f4       	brne	.+4      	; 0x2172 <__fp_round+0xc>
    216e:	88 23       	and	r24, r24
    2170:	52 f0       	brmi	.+20     	; 0x2186 <__fp_round+0x20>
    2172:	bb 0f       	add	r27, r27
    2174:	40 f4       	brcc	.+16     	; 0x2186 <__fp_round+0x20>
    2176:	bf 2b       	or	r27, r31
    2178:	11 f4       	brne	.+4      	; 0x217e <__fp_round+0x18>
    217a:	60 ff       	sbrs	r22, 0
    217c:	04 c0       	rjmp	.+8      	; 0x2186 <__fp_round+0x20>
    217e:	6f 5f       	subi	r22, 0xFF	; 255
    2180:	7f 4f       	sbci	r23, 0xFF	; 255
    2182:	8f 4f       	sbci	r24, 0xFF	; 255
    2184:	9f 4f       	sbci	r25, 0xFF	; 255
    2186:	08 95       	ret

00002188 <__fp_split3>:
    2188:	57 fd       	sbrc	r21, 7
    218a:	90 58       	subi	r25, 0x80	; 128
    218c:	44 0f       	add	r20, r20
    218e:	55 1f       	adc	r21, r21
    2190:	59 f0       	breq	.+22     	; 0x21a8 <__fp_splitA+0x10>
    2192:	5f 3f       	cpi	r21, 0xFF	; 255
    2194:	71 f0       	breq	.+28     	; 0x21b2 <__fp_splitA+0x1a>
    2196:	47 95       	ror	r20

00002198 <__fp_splitA>:
    2198:	88 0f       	add	r24, r24
    219a:	97 fb       	bst	r25, 7
    219c:	99 1f       	adc	r25, r25
    219e:	61 f0       	breq	.+24     	; 0x21b8 <__fp_splitA+0x20>
    21a0:	9f 3f       	cpi	r25, 0xFF	; 255
    21a2:	79 f0       	breq	.+30     	; 0x21c2 <__fp_splitA+0x2a>
    21a4:	87 95       	ror	r24
    21a6:	08 95       	ret
    21a8:	12 16       	cp	r1, r18
    21aa:	13 06       	cpc	r1, r19
    21ac:	14 06       	cpc	r1, r20
    21ae:	55 1f       	adc	r21, r21
    21b0:	f2 cf       	rjmp	.-28     	; 0x2196 <__fp_split3+0xe>
    21b2:	46 95       	lsr	r20
    21b4:	f1 df       	rcall	.-30     	; 0x2198 <__fp_splitA>
    21b6:	08 c0       	rjmp	.+16     	; 0x21c8 <__fp_splitA+0x30>
    21b8:	16 16       	cp	r1, r22
    21ba:	17 06       	cpc	r1, r23
    21bc:	18 06       	cpc	r1, r24
    21be:	99 1f       	adc	r25, r25
    21c0:	f1 cf       	rjmp	.-30     	; 0x21a4 <__fp_splitA+0xc>
    21c2:	86 95       	lsr	r24
    21c4:	71 05       	cpc	r23, r1
    21c6:	61 05       	cpc	r22, r1
    21c8:	08 94       	sec
    21ca:	08 95       	ret

000021cc <__fp_zero>:
    21cc:	e8 94       	clt

000021ce <__fp_szero>:
    21ce:	bb 27       	eor	r27, r27
    21d0:	66 27       	eor	r22, r22
    21d2:	77 27       	eor	r23, r23
    21d4:	cb 01       	movw	r24, r22
    21d6:	97 f9       	bld	r25, 7
    21d8:	08 95       	ret

000021da <inverse>:
    21da:	9b 01       	movw	r18, r22
    21dc:	ac 01       	movw	r20, r24
    21de:	60 e0       	ldi	r22, 0x00	; 0
    21e0:	70 e0       	ldi	r23, 0x00	; 0
    21e2:	80 e8       	ldi	r24, 0x80	; 128
    21e4:	9f e3       	ldi	r25, 0x3F	; 63
    21e6:	ad ce       	rjmp	.-678    	; 0x1f42 <__divsf3>

000021e8 <__mulsf3>:
    21e8:	0b d0       	rcall	.+22     	; 0x2200 <__mulsf3x>
    21ea:	bd cf       	rjmp	.-134    	; 0x2166 <__fp_round>
    21ec:	ae df       	rcall	.-164    	; 0x214a <__fp_pscA>
    21ee:	28 f0       	brcs	.+10     	; 0x21fa <__mulsf3+0x12>
    21f0:	b3 df       	rcall	.-154    	; 0x2158 <__fp_pscB>
    21f2:	18 f0       	brcs	.+6      	; 0x21fa <__mulsf3+0x12>
    21f4:	95 23       	and	r25, r21
    21f6:	09 f0       	breq	.+2      	; 0x21fa <__mulsf3+0x12>
    21f8:	7a cf       	rjmp	.-268    	; 0x20ee <__fp_inf>
    21fa:	7f cf       	rjmp	.-258    	; 0x20fa <__fp_nan>
    21fc:	11 24       	eor	r1, r1
    21fe:	e7 cf       	rjmp	.-50     	; 0x21ce <__fp_szero>

00002200 <__mulsf3x>:
    2200:	c3 df       	rcall	.-122    	; 0x2188 <__fp_split3>
    2202:	a0 f3       	brcs	.-24     	; 0x21ec <__mulsf3+0x4>

00002204 <__mulsf3_pse>:
    2204:	95 9f       	mul	r25, r21
    2206:	d1 f3       	breq	.-12     	; 0x21fc <__mulsf3+0x14>
    2208:	95 0f       	add	r25, r21
    220a:	50 e0       	ldi	r21, 0x00	; 0
    220c:	55 1f       	adc	r21, r21
    220e:	62 9f       	mul	r22, r18
    2210:	f0 01       	movw	r30, r0
    2212:	72 9f       	mul	r23, r18
    2214:	bb 27       	eor	r27, r27
    2216:	f0 0d       	add	r31, r0
    2218:	b1 1d       	adc	r27, r1
    221a:	63 9f       	mul	r22, r19
    221c:	aa 27       	eor	r26, r26
    221e:	f0 0d       	add	r31, r0
    2220:	b1 1d       	adc	r27, r1
    2222:	aa 1f       	adc	r26, r26
    2224:	64 9f       	mul	r22, r20
    2226:	66 27       	eor	r22, r22
    2228:	b0 0d       	add	r27, r0
    222a:	a1 1d       	adc	r26, r1
    222c:	66 1f       	adc	r22, r22
    222e:	82 9f       	mul	r24, r18
    2230:	22 27       	eor	r18, r18
    2232:	b0 0d       	add	r27, r0
    2234:	a1 1d       	adc	r26, r1
    2236:	62 1f       	adc	r22, r18
    2238:	73 9f       	mul	r23, r19
    223a:	b0 0d       	add	r27, r0
    223c:	a1 1d       	adc	r26, r1
    223e:	62 1f       	adc	r22, r18
    2240:	83 9f       	mul	r24, r19
    2242:	a0 0d       	add	r26, r0
    2244:	61 1d       	adc	r22, r1
    2246:	22 1f       	adc	r18, r18
    2248:	74 9f       	mul	r23, r20
    224a:	33 27       	eor	r19, r19
    224c:	a0 0d       	add	r26, r0
    224e:	61 1d       	adc	r22, r1
    2250:	23 1f       	adc	r18, r19
    2252:	84 9f       	mul	r24, r20
    2254:	60 0d       	add	r22, r0
    2256:	21 1d       	adc	r18, r1
    2258:	82 2f       	mov	r24, r18
    225a:	76 2f       	mov	r23, r22
    225c:	6a 2f       	mov	r22, r26
    225e:	11 24       	eor	r1, r1
    2260:	9f 57       	subi	r25, 0x7F	; 127
    2262:	50 40       	sbci	r21, 0x00	; 0
    2264:	8a f0       	brmi	.+34     	; 0x2288 <__mulsf3_pse+0x84>
    2266:	e1 f0       	breq	.+56     	; 0x22a0 <__mulsf3_pse+0x9c>
    2268:	88 23       	and	r24, r24
    226a:	4a f0       	brmi	.+18     	; 0x227e <__mulsf3_pse+0x7a>
    226c:	ee 0f       	add	r30, r30
    226e:	ff 1f       	adc	r31, r31
    2270:	bb 1f       	adc	r27, r27
    2272:	66 1f       	adc	r22, r22
    2274:	77 1f       	adc	r23, r23
    2276:	88 1f       	adc	r24, r24
    2278:	91 50       	subi	r25, 0x01	; 1
    227a:	50 40       	sbci	r21, 0x00	; 0
    227c:	a9 f7       	brne	.-22     	; 0x2268 <__mulsf3_pse+0x64>
    227e:	9e 3f       	cpi	r25, 0xFE	; 254
    2280:	51 05       	cpc	r21, r1
    2282:	70 f0       	brcs	.+28     	; 0x22a0 <__mulsf3_pse+0x9c>
    2284:	34 cf       	rjmp	.-408    	; 0x20ee <__fp_inf>
    2286:	a3 cf       	rjmp	.-186    	; 0x21ce <__fp_szero>
    2288:	5f 3f       	cpi	r21, 0xFF	; 255
    228a:	ec f3       	brlt	.-6      	; 0x2286 <__mulsf3_pse+0x82>
    228c:	98 3e       	cpi	r25, 0xE8	; 232
    228e:	dc f3       	brlt	.-10     	; 0x2286 <__mulsf3_pse+0x82>
    2290:	86 95       	lsr	r24
    2292:	77 95       	ror	r23
    2294:	67 95       	ror	r22
    2296:	b7 95       	ror	r27
    2298:	f7 95       	ror	r31
    229a:	e7 95       	ror	r30
    229c:	9f 5f       	subi	r25, 0xFF	; 255
    229e:	c1 f7       	brne	.-16     	; 0x2290 <__mulsf3_pse+0x8c>
    22a0:	fe 2b       	or	r31, r30
    22a2:	88 0f       	add	r24, r24
    22a4:	91 1d       	adc	r25, r1
    22a6:	96 95       	lsr	r25
    22a8:	87 95       	ror	r24
    22aa:	97 f9       	bld	r25, 7
    22ac:	08 95       	ret

000022ae <pow>:
    22ae:	fa 01       	movw	r30, r20
    22b0:	ee 0f       	add	r30, r30
    22b2:	ff 1f       	adc	r31, r31
    22b4:	30 96       	adiw	r30, 0x00	; 0
    22b6:	21 05       	cpc	r18, r1
    22b8:	31 05       	cpc	r19, r1
    22ba:	99 f1       	breq	.+102    	; 0x2322 <pow+0x74>
    22bc:	61 15       	cp	r22, r1
    22be:	71 05       	cpc	r23, r1
    22c0:	61 f4       	brne	.+24     	; 0x22da <pow+0x2c>
    22c2:	80 38       	cpi	r24, 0x80	; 128
    22c4:	bf e3       	ldi	r27, 0x3F	; 63
    22c6:	9b 07       	cpc	r25, r27
    22c8:	49 f1       	breq	.+82     	; 0x231c <pow+0x6e>
    22ca:	68 94       	set
    22cc:	90 38       	cpi	r25, 0x80	; 128
    22ce:	81 05       	cpc	r24, r1
    22d0:	61 f0       	breq	.+24     	; 0x22ea <pow+0x3c>
    22d2:	80 38       	cpi	r24, 0x80	; 128
    22d4:	bf ef       	ldi	r27, 0xFF	; 255
    22d6:	9b 07       	cpc	r25, r27
    22d8:	41 f0       	breq	.+16     	; 0x22ea <pow+0x3c>
    22da:	99 23       	and	r25, r25
    22dc:	42 f5       	brpl	.+80     	; 0x232e <pow+0x80>
    22de:	ff 3f       	cpi	r31, 0xFF	; 255
    22e0:	e1 05       	cpc	r30, r1
    22e2:	31 05       	cpc	r19, r1
    22e4:	21 05       	cpc	r18, r1
    22e6:	11 f1       	breq	.+68     	; 0x232c <pow+0x7e>
    22e8:	e8 94       	clt
    22ea:	08 94       	sec
    22ec:	e7 95       	ror	r30
    22ee:	d9 01       	movw	r26, r18
    22f0:	aa 23       	and	r26, r26
    22f2:	29 f4       	brne	.+10     	; 0x22fe <pow+0x50>
    22f4:	ab 2f       	mov	r26, r27
    22f6:	be 2f       	mov	r27, r30
    22f8:	f8 5f       	subi	r31, 0xF8	; 248
    22fa:	d0 f3       	brcs	.-12     	; 0x22f0 <pow+0x42>
    22fc:	10 c0       	rjmp	.+32     	; 0x231e <pow+0x70>
    22fe:	ff 5f       	subi	r31, 0xFF	; 255
    2300:	70 f4       	brcc	.+28     	; 0x231e <pow+0x70>
    2302:	a6 95       	lsr	r26
    2304:	e0 f7       	brcc	.-8      	; 0x22fe <pow+0x50>
    2306:	f7 39       	cpi	r31, 0x97	; 151
    2308:	50 f0       	brcs	.+20     	; 0x231e <pow+0x70>
    230a:	19 f0       	breq	.+6      	; 0x2312 <pow+0x64>
    230c:	ff 3a       	cpi	r31, 0xAF	; 175
    230e:	38 f4       	brcc	.+14     	; 0x231e <pow+0x70>
    2310:	9f 77       	andi	r25, 0x7F	; 127
    2312:	9f 93       	push	r25
    2314:	0c d0       	rcall	.+24     	; 0x232e <pow+0x80>
    2316:	0f 90       	pop	r0
    2318:	07 fc       	sbrc	r0, 7
    231a:	90 58       	subi	r25, 0x80	; 128
    231c:	08 95       	ret
    231e:	3e f0       	brts	.+14     	; 0x232e <pow+0x80>
    2320:	ec ce       	rjmp	.-552    	; 0x20fa <__fp_nan>
    2322:	60 e0       	ldi	r22, 0x00	; 0
    2324:	70 e0       	ldi	r23, 0x00	; 0
    2326:	80 e8       	ldi	r24, 0x80	; 128
    2328:	9f e3       	ldi	r25, 0x3F	; 63
    232a:	08 95       	ret
    232c:	4f e7       	ldi	r20, 0x7F	; 127
    232e:	9f 77       	andi	r25, 0x7F	; 127
    2330:	5f 93       	push	r21
    2332:	4f 93       	push	r20
    2334:	3f 93       	push	r19
    2336:	2f 93       	push	r18
    2338:	cc d0       	rcall	.+408    	; 0x24d2 <log>
    233a:	2f 91       	pop	r18
    233c:	3f 91       	pop	r19
    233e:	4f 91       	pop	r20
    2340:	5f 91       	pop	r21
    2342:	52 df       	rcall	.-348    	; 0x21e8 <__mulsf3>
    2344:	4a c0       	rjmp	.+148    	; 0x23da <exp>
    2346:	11 f4       	brne	.+4      	; 0x234c <pow+0x9e>
    2348:	0e f4       	brtc	.+2      	; 0x234c <pow+0x9e>
    234a:	d7 ce       	rjmp	.-594    	; 0x20fa <__fp_nan>
    234c:	72 c0       	rjmp	.+228    	; 0x2432 <__fp_mpack>

0000234e <sqrt>:
    234e:	24 df       	rcall	.-440    	; 0x2198 <__fp_splitA>
    2350:	d0 f3       	brcs	.-12     	; 0x2346 <pow+0x98>
    2352:	99 23       	and	r25, r25
    2354:	d9 f3       	breq	.-10     	; 0x234c <pow+0x9e>
    2356:	ce f3       	brts	.-14     	; 0x234a <pow+0x9c>
    2358:	9f 57       	subi	r25, 0x7F	; 127
    235a:	55 0b       	sbc	r21, r21
    235c:	87 ff       	sbrs	r24, 7
    235e:	77 d0       	rcall	.+238    	; 0x244e <__fp_norm2>
    2360:	00 24       	eor	r0, r0
    2362:	a0 e6       	ldi	r26, 0x60	; 96
    2364:	40 ea       	ldi	r20, 0xA0	; 160
    2366:	90 01       	movw	r18, r0
    2368:	80 58       	subi	r24, 0x80	; 128
    236a:	56 95       	lsr	r21
    236c:	97 95       	ror	r25
    236e:	28 f4       	brcc	.+10     	; 0x237a <sqrt+0x2c>
    2370:	80 5c       	subi	r24, 0xC0	; 192
    2372:	66 0f       	add	r22, r22
    2374:	77 1f       	adc	r23, r23
    2376:	88 1f       	adc	r24, r24
    2378:	20 f0       	brcs	.+8      	; 0x2382 <sqrt+0x34>
    237a:	26 17       	cp	r18, r22
    237c:	37 07       	cpc	r19, r23
    237e:	48 07       	cpc	r20, r24
    2380:	30 f4       	brcc	.+12     	; 0x238e <sqrt+0x40>
    2382:	62 1b       	sub	r22, r18
    2384:	73 0b       	sbc	r23, r19
    2386:	84 0b       	sbc	r24, r20
    2388:	20 29       	or	r18, r0
    238a:	31 29       	or	r19, r1
    238c:	4a 2b       	or	r20, r26
    238e:	a6 95       	lsr	r26
    2390:	17 94       	ror	r1
    2392:	07 94       	ror	r0
    2394:	20 25       	eor	r18, r0
    2396:	31 25       	eor	r19, r1
    2398:	4a 27       	eor	r20, r26
    239a:	58 f7       	brcc	.-42     	; 0x2372 <sqrt+0x24>
    239c:	66 0f       	add	r22, r22
    239e:	77 1f       	adc	r23, r23
    23a0:	88 1f       	adc	r24, r24
    23a2:	20 f0       	brcs	.+8      	; 0x23ac <sqrt+0x5e>
    23a4:	26 17       	cp	r18, r22
    23a6:	37 07       	cpc	r19, r23
    23a8:	48 07       	cpc	r20, r24
    23aa:	30 f4       	brcc	.+12     	; 0x23b8 <sqrt+0x6a>
    23ac:	62 0b       	sbc	r22, r18
    23ae:	73 0b       	sbc	r23, r19
    23b0:	84 0b       	sbc	r24, r20
    23b2:	20 0d       	add	r18, r0
    23b4:	31 1d       	adc	r19, r1
    23b6:	41 1d       	adc	r20, r1
    23b8:	a0 95       	com	r26
    23ba:	81 f7       	brne	.-32     	; 0x239c <sqrt+0x4e>
    23bc:	b9 01       	movw	r22, r18
    23be:	84 2f       	mov	r24, r20
    23c0:	91 58       	subi	r25, 0x81	; 129
    23c2:	88 0f       	add	r24, r24
    23c4:	96 95       	lsr	r25
    23c6:	87 95       	ror	r24
    23c8:	08 95       	ret

000023ca <square>:
    23ca:	9b 01       	movw	r18, r22
    23cc:	ac 01       	movw	r20, r24
    23ce:	0c cf       	rjmp	.-488    	; 0x21e8 <__mulsf3>
    23d0:	19 f4       	brne	.+6      	; 0x23d8 <square+0xe>
    23d2:	0e f0       	brts	.+2      	; 0x23d6 <square+0xc>
    23d4:	8c ce       	rjmp	.-744    	; 0x20ee <__fp_inf>
    23d6:	fa ce       	rjmp	.-524    	; 0x21cc <__fp_zero>
    23d8:	90 ce       	rjmp	.-736    	; 0x20fa <__fp_nan>

000023da <exp>:
    23da:	de de       	rcall	.-580    	; 0x2198 <__fp_splitA>
    23dc:	c8 f3       	brcs	.-14     	; 0x23d0 <square+0x6>
    23de:	96 38       	cpi	r25, 0x86	; 134
    23e0:	c0 f7       	brcc	.-16     	; 0x23d2 <square+0x8>
    23e2:	07 f8       	bld	r0, 7
    23e4:	0f 92       	push	r0
    23e6:	e8 94       	clt
    23e8:	2b e3       	ldi	r18, 0x3B	; 59
    23ea:	3a ea       	ldi	r19, 0xAA	; 170
    23ec:	48 eb       	ldi	r20, 0xB8	; 184
    23ee:	5f e7       	ldi	r21, 0x7F	; 127
    23f0:	09 df       	rcall	.-494    	; 0x2204 <__mulsf3_pse>
    23f2:	0f 92       	push	r0
    23f4:	0f 92       	push	r0
    23f6:	0f 92       	push	r0
    23f8:	4d b7       	in	r20, 0x3d	; 61
    23fa:	5e b7       	in	r21, 0x3e	; 62
    23fc:	0f 92       	push	r0
    23fe:	a9 d0       	rcall	.+338    	; 0x2552 <modf>
    2400:	e9 ea       	ldi	r30, 0xA9	; 169
    2402:	f0 e0       	ldi	r31, 0x00	; 0
    2404:	7d de       	rcall	.-774    	; 0x2100 <__fp_powser>
    2406:	4f 91       	pop	r20
    2408:	5f 91       	pop	r21
    240a:	ef 91       	pop	r30
    240c:	ff 91       	pop	r31
    240e:	e5 95       	asr	r30
    2410:	ee 1f       	adc	r30, r30
    2412:	ff 1f       	adc	r31, r31
    2414:	49 f0       	breq	.+18     	; 0x2428 <exp+0x4e>
    2416:	fe 57       	subi	r31, 0x7E	; 126
    2418:	e0 68       	ori	r30, 0x80	; 128
    241a:	44 27       	eor	r20, r20
    241c:	ee 0f       	add	r30, r30
    241e:	44 1f       	adc	r20, r20
    2420:	fa 95       	dec	r31
    2422:	e1 f7       	brne	.-8      	; 0x241c <exp+0x42>
    2424:	41 95       	neg	r20
    2426:	55 0b       	sbc	r21, r21
    2428:	1b d0       	rcall	.+54     	; 0x2460 <ldexp>
    242a:	0f 90       	pop	r0
    242c:	07 fe       	sbrs	r0, 7
    242e:	d5 ce       	rjmp	.-598    	; 0x21da <inverse>
    2430:	08 95       	ret

00002432 <__fp_mpack>:
    2432:	9f 3f       	cpi	r25, 0xFF	; 255
    2434:	31 f0       	breq	.+12     	; 0x2442 <__fp_mpack_finite+0xc>

00002436 <__fp_mpack_finite>:
    2436:	91 50       	subi	r25, 0x01	; 1
    2438:	20 f4       	brcc	.+8      	; 0x2442 <__fp_mpack_finite+0xc>
    243a:	87 95       	ror	r24
    243c:	77 95       	ror	r23
    243e:	67 95       	ror	r22
    2440:	b7 95       	ror	r27
    2442:	88 0f       	add	r24, r24
    2444:	91 1d       	adc	r25, r1
    2446:	96 95       	lsr	r25
    2448:	87 95       	ror	r24
    244a:	97 f9       	bld	r25, 7
    244c:	08 95       	ret

0000244e <__fp_norm2>:
    244e:	91 50       	subi	r25, 0x01	; 1
    2450:	50 40       	sbci	r21, 0x00	; 0
    2452:	66 0f       	add	r22, r22
    2454:	77 1f       	adc	r23, r23
    2456:	88 1f       	adc	r24, r24
    2458:	d2 f7       	brpl	.-12     	; 0x244e <__fp_norm2>
    245a:	08 95       	ret
    245c:	48 ce       	rjmp	.-880    	; 0x20ee <__fp_inf>
    245e:	e9 cf       	rjmp	.-46     	; 0x2432 <__fp_mpack>

00002460 <ldexp>:
    2460:	9b de       	rcall	.-714    	; 0x2198 <__fp_splitA>
    2462:	e8 f3       	brcs	.-6      	; 0x245e <__fp_norm2+0x10>
    2464:	99 23       	and	r25, r25
    2466:	d9 f3       	breq	.-10     	; 0x245e <__fp_norm2+0x10>
    2468:	94 0f       	add	r25, r20
    246a:	51 1d       	adc	r21, r1
    246c:	bb f3       	brvs	.-18     	; 0x245c <__fp_norm2+0xe>
    246e:	91 50       	subi	r25, 0x01	; 1
    2470:	50 40       	sbci	r21, 0x00	; 0
    2472:	94 f0       	brlt	.+36     	; 0x2498 <ldexp+0x38>
    2474:	59 f0       	breq	.+22     	; 0x248c <ldexp+0x2c>
    2476:	88 23       	and	r24, r24
    2478:	32 f0       	brmi	.+12     	; 0x2486 <ldexp+0x26>
    247a:	66 0f       	add	r22, r22
    247c:	77 1f       	adc	r23, r23
    247e:	88 1f       	adc	r24, r24
    2480:	91 50       	subi	r25, 0x01	; 1
    2482:	50 40       	sbci	r21, 0x00	; 0
    2484:	c1 f7       	brne	.-16     	; 0x2476 <ldexp+0x16>
    2486:	9e 3f       	cpi	r25, 0xFE	; 254
    2488:	51 05       	cpc	r21, r1
    248a:	44 f7       	brge	.-48     	; 0x245c <__fp_norm2+0xe>
    248c:	88 0f       	add	r24, r24
    248e:	91 1d       	adc	r25, r1
    2490:	96 95       	lsr	r25
    2492:	87 95       	ror	r24
    2494:	97 f9       	bld	r25, 7
    2496:	08 95       	ret
    2498:	5f 3f       	cpi	r21, 0xFF	; 255
    249a:	ac f0       	brlt	.+42     	; 0x24c6 <ldexp+0x66>
    249c:	98 3e       	cpi	r25, 0xE8	; 232
    249e:	9c f0       	brlt	.+38     	; 0x24c6 <ldexp+0x66>
    24a0:	bb 27       	eor	r27, r27
    24a2:	86 95       	lsr	r24
    24a4:	77 95       	ror	r23
    24a6:	67 95       	ror	r22
    24a8:	b7 95       	ror	r27
    24aa:	08 f4       	brcc	.+2      	; 0x24ae <ldexp+0x4e>
    24ac:	b1 60       	ori	r27, 0x01	; 1
    24ae:	93 95       	inc	r25
    24b0:	c1 f7       	brne	.-16     	; 0x24a2 <ldexp+0x42>
    24b2:	bb 0f       	add	r27, r27
    24b4:	58 f7       	brcc	.-42     	; 0x248c <ldexp+0x2c>
    24b6:	11 f4       	brne	.+4      	; 0x24bc <ldexp+0x5c>
    24b8:	60 ff       	sbrs	r22, 0
    24ba:	e8 cf       	rjmp	.-48     	; 0x248c <ldexp+0x2c>
    24bc:	6f 5f       	subi	r22, 0xFF	; 255
    24be:	7f 4f       	sbci	r23, 0xFF	; 255
    24c0:	8f 4f       	sbci	r24, 0xFF	; 255
    24c2:	9f 4f       	sbci	r25, 0xFF	; 255
    24c4:	e3 cf       	rjmp	.-58     	; 0x248c <ldexp+0x2c>
    24c6:	83 ce       	rjmp	.-762    	; 0x21ce <__fp_szero>
    24c8:	0e f0       	brts	.+2      	; 0x24cc <ldexp+0x6c>
    24ca:	b3 cf       	rjmp	.-154    	; 0x2432 <__fp_mpack>
    24cc:	16 ce       	rjmp	.-980    	; 0x20fa <__fp_nan>
    24ce:	68 94       	set
    24d0:	0e ce       	rjmp	.-996    	; 0x20ee <__fp_inf>

000024d2 <log>:
    24d2:	62 de       	rcall	.-828    	; 0x2198 <__fp_splitA>
    24d4:	c8 f3       	brcs	.-14     	; 0x24c8 <ldexp+0x68>
    24d6:	99 23       	and	r25, r25
    24d8:	d1 f3       	breq	.-12     	; 0x24ce <ldexp+0x6e>
    24da:	c6 f3       	brts	.-16     	; 0x24cc <ldexp+0x6c>
    24dc:	df 93       	push	r29
    24de:	cf 93       	push	r28
    24e0:	1f 93       	push	r17
    24e2:	0f 93       	push	r16
    24e4:	ff 92       	push	r15
    24e6:	c9 2f       	mov	r28, r25
    24e8:	dd 27       	eor	r29, r29
    24ea:	88 23       	and	r24, r24
    24ec:	2a f0       	brmi	.+10     	; 0x24f8 <log+0x26>
    24ee:	21 97       	sbiw	r28, 0x01	; 1
    24f0:	66 0f       	add	r22, r22
    24f2:	77 1f       	adc	r23, r23
    24f4:	88 1f       	adc	r24, r24
    24f6:	da f7       	brpl	.-10     	; 0x24ee <log+0x1c>
    24f8:	20 e0       	ldi	r18, 0x00	; 0
    24fa:	30 e0       	ldi	r19, 0x00	; 0
    24fc:	40 e8       	ldi	r20, 0x80	; 128
    24fe:	5f eb       	ldi	r21, 0xBF	; 191
    2500:	9f e3       	ldi	r25, 0x3F	; 63
    2502:	88 39       	cpi	r24, 0x98	; 152
    2504:	20 f0       	brcs	.+8      	; 0x250e <log+0x3c>
    2506:	80 3e       	cpi	r24, 0xE0	; 224
    2508:	30 f0       	brcs	.+12     	; 0x2516 <log+0x44>
    250a:	21 96       	adiw	r28, 0x01	; 1
    250c:	8f 77       	andi	r24, 0x7F	; 127
    250e:	53 dc       	rcall	.-1882   	; 0x1db6 <__addsf3>
    2510:	e1 ed       	ldi	r30, 0xD1	; 209
    2512:	f0 e0       	ldi	r31, 0x00	; 0
    2514:	03 c0       	rjmp	.+6      	; 0x251c <log+0x4a>
    2516:	4f dc       	rcall	.-1890   	; 0x1db6 <__addsf3>
    2518:	ee ef       	ldi	r30, 0xFE	; 254
    251a:	f0 e0       	ldi	r31, 0x00	; 0
    251c:	f1 dd       	rcall	.-1054   	; 0x2100 <__fp_powser>
    251e:	8b 01       	movw	r16, r22
    2520:	be 01       	movw	r22, r28
    2522:	ec 01       	movw	r28, r24
    2524:	fb 2e       	mov	r15, r27
    2526:	6f 57       	subi	r22, 0x7F	; 127
    2528:	71 09       	sbc	r23, r1
    252a:	75 95       	asr	r23
    252c:	77 1f       	adc	r23, r23
    252e:	88 0b       	sbc	r24, r24
    2530:	99 0b       	sbc	r25, r25
    2532:	a2 dd       	rcall	.-1212   	; 0x2078 <__floatsisf>
    2534:	28 e1       	ldi	r18, 0x18	; 24
    2536:	32 e7       	ldi	r19, 0x72	; 114
    2538:	41 e3       	ldi	r20, 0x31	; 49
    253a:	5f e3       	ldi	r21, 0x3F	; 63
    253c:	61 de       	rcall	.-830    	; 0x2200 <__mulsf3x>
    253e:	af 2d       	mov	r26, r15
    2540:	98 01       	movw	r18, r16
    2542:	ae 01       	movw	r20, r28
    2544:	ff 90       	pop	r15
    2546:	0f 91       	pop	r16
    2548:	1f 91       	pop	r17
    254a:	cf 91       	pop	r28
    254c:	df 91       	pop	r29
    254e:	44 dc       	rcall	.-1912   	; 0x1dd8 <__addsf3x>
    2550:	0a ce       	rjmp	.-1004   	; 0x2166 <__fp_round>

00002552 <modf>:
    2552:	fa 01       	movw	r30, r20
    2554:	dc 01       	movw	r26, r24
    2556:	aa 0f       	add	r26, r26
    2558:	bb 1f       	adc	r27, r27
    255a:	9b 01       	movw	r18, r22
    255c:	ac 01       	movw	r20, r24
    255e:	bf 57       	subi	r27, 0x7F	; 127
    2560:	28 f4       	brcc	.+10     	; 0x256c <modf+0x1a>
    2562:	22 27       	eor	r18, r18
    2564:	33 27       	eor	r19, r19
    2566:	44 27       	eor	r20, r20
    2568:	50 78       	andi	r21, 0x80	; 128
    256a:	1f c0       	rjmp	.+62     	; 0x25aa <modf+0x58>
    256c:	b7 51       	subi	r27, 0x17	; 23
    256e:	88 f4       	brcc	.+34     	; 0x2592 <modf+0x40>
    2570:	ab 2f       	mov	r26, r27
    2572:	00 24       	eor	r0, r0
    2574:	46 95       	lsr	r20
    2576:	37 95       	ror	r19
    2578:	27 95       	ror	r18
    257a:	01 1c       	adc	r0, r1
    257c:	a3 95       	inc	r26
    257e:	d2 f3       	brmi	.-12     	; 0x2574 <modf+0x22>
    2580:	00 20       	and	r0, r0
    2582:	69 f0       	breq	.+26     	; 0x259e <modf+0x4c>
    2584:	22 0f       	add	r18, r18
    2586:	33 1f       	adc	r19, r19
    2588:	44 1f       	adc	r20, r20
    258a:	b3 95       	inc	r27
    258c:	da f3       	brmi	.-10     	; 0x2584 <modf+0x32>
    258e:	0d d0       	rcall	.+26     	; 0x25aa <modf+0x58>
    2590:	11 cc       	rjmp	.-2014   	; 0x1db4 <__subsf3>
    2592:	61 30       	cpi	r22, 0x01	; 1
    2594:	71 05       	cpc	r23, r1
    2596:	a0 e8       	ldi	r26, 0x80	; 128
    2598:	8a 07       	cpc	r24, r26
    259a:	b9 46       	sbci	r27, 0x69	; 105
    259c:	30 f4       	brcc	.+12     	; 0x25aa <modf+0x58>
    259e:	9b 01       	movw	r18, r22
    25a0:	ac 01       	movw	r20, r24
    25a2:	66 27       	eor	r22, r22
    25a4:	77 27       	eor	r23, r23
    25a6:	88 27       	eor	r24, r24
    25a8:	90 78       	andi	r25, 0x80	; 128
    25aa:	30 96       	adiw	r30, 0x00	; 0
    25ac:	21 f0       	breq	.+8      	; 0x25b6 <modf+0x64>
    25ae:	20 83       	st	Z, r18
    25b0:	31 83       	std	Z+1, r19	; 0x01
    25b2:	42 83       	std	Z+2, r20	; 0x02
    25b4:	53 83       	std	Z+3, r21	; 0x03
    25b6:	08 95       	ret

000025b8 <__divmodhi4>:
    25b8:	97 fb       	bst	r25, 7
    25ba:	09 2e       	mov	r0, r25
    25bc:	07 26       	eor	r0, r23
    25be:	0a d0       	rcall	.+20     	; 0x25d4 <__divmodhi4_neg1>
    25c0:	77 fd       	sbrc	r23, 7
    25c2:	04 d0       	rcall	.+8      	; 0x25cc <__divmodhi4_neg2>
    25c4:	65 d0       	rcall	.+202    	; 0x2690 <__udivmodhi4>
    25c6:	06 d0       	rcall	.+12     	; 0x25d4 <__divmodhi4_neg1>
    25c8:	00 20       	and	r0, r0
    25ca:	1a f4       	brpl	.+6      	; 0x25d2 <__divmodhi4_exit>

000025cc <__divmodhi4_neg2>:
    25cc:	70 95       	com	r23
    25ce:	61 95       	neg	r22
    25d0:	7f 4f       	sbci	r23, 0xFF	; 255

000025d2 <__divmodhi4_exit>:
    25d2:	08 95       	ret

000025d4 <__divmodhi4_neg1>:
    25d4:	f6 f7       	brtc	.-4      	; 0x25d2 <__divmodhi4_exit>
    25d6:	90 95       	com	r25
    25d8:	81 95       	neg	r24
    25da:	9f 4f       	sbci	r25, 0xFF	; 255
    25dc:	08 95       	ret

000025de <__udivmodsi4>:
    25de:	a1 e2       	ldi	r26, 0x21	; 33
    25e0:	1a 2e       	mov	r1, r26
    25e2:	aa 1b       	sub	r26, r26
    25e4:	bb 1b       	sub	r27, r27
    25e6:	fd 01       	movw	r30, r26
    25e8:	0d c0       	rjmp	.+26     	; 0x2604 <__udivmodsi4_ep>

000025ea <__udivmodsi4_loop>:
    25ea:	aa 1f       	adc	r26, r26
    25ec:	bb 1f       	adc	r27, r27
    25ee:	ee 1f       	adc	r30, r30
    25f0:	ff 1f       	adc	r31, r31
    25f2:	a2 17       	cp	r26, r18
    25f4:	b3 07       	cpc	r27, r19
    25f6:	e4 07       	cpc	r30, r20
    25f8:	f5 07       	cpc	r31, r21
    25fa:	20 f0       	brcs	.+8      	; 0x2604 <__udivmodsi4_ep>
    25fc:	a2 1b       	sub	r26, r18
    25fe:	b3 0b       	sbc	r27, r19
    2600:	e4 0b       	sbc	r30, r20
    2602:	f5 0b       	sbc	r31, r21

00002604 <__udivmodsi4_ep>:
    2604:	66 1f       	adc	r22, r22
    2606:	77 1f       	adc	r23, r23
    2608:	88 1f       	adc	r24, r24
    260a:	99 1f       	adc	r25, r25
    260c:	1a 94       	dec	r1
    260e:	69 f7       	brne	.-38     	; 0x25ea <__udivmodsi4_loop>
    2610:	60 95       	com	r22
    2612:	70 95       	com	r23
    2614:	80 95       	com	r24
    2616:	90 95       	com	r25
    2618:	9b 01       	movw	r18, r22
    261a:	ac 01       	movw	r20, r24
    261c:	bd 01       	movw	r22, r26
    261e:	cf 01       	movw	r24, r30
    2620:	08 95       	ret

00002622 <__prologue_saves__>:
    2622:	2f 92       	push	r2
    2624:	3f 92       	push	r3
    2626:	4f 92       	push	r4
    2628:	5f 92       	push	r5
    262a:	6f 92       	push	r6
    262c:	7f 92       	push	r7
    262e:	8f 92       	push	r8
    2630:	9f 92       	push	r9
    2632:	af 92       	push	r10
    2634:	bf 92       	push	r11
    2636:	cf 92       	push	r12
    2638:	df 92       	push	r13
    263a:	ef 92       	push	r14
    263c:	ff 92       	push	r15
    263e:	0f 93       	push	r16
    2640:	1f 93       	push	r17
    2642:	cf 93       	push	r28
    2644:	df 93       	push	r29
    2646:	cd b7       	in	r28, 0x3d	; 61
    2648:	de b7       	in	r29, 0x3e	; 62
    264a:	ca 1b       	sub	r28, r26
    264c:	db 0b       	sbc	r29, r27
    264e:	0f b6       	in	r0, 0x3f	; 63
    2650:	f8 94       	cli
    2652:	de bf       	out	0x3e, r29	; 62
    2654:	0f be       	out	0x3f, r0	; 63
    2656:	cd bf       	out	0x3d, r28	; 61
    2658:	09 94       	ijmp

0000265a <__epilogue_restores__>:
    265a:	2a 88       	ldd	r2, Y+18	; 0x12
    265c:	39 88       	ldd	r3, Y+17	; 0x11
    265e:	48 88       	ldd	r4, Y+16	; 0x10
    2660:	5f 84       	ldd	r5, Y+15	; 0x0f
    2662:	6e 84       	ldd	r6, Y+14	; 0x0e
    2664:	7d 84       	ldd	r7, Y+13	; 0x0d
    2666:	8c 84       	ldd	r8, Y+12	; 0x0c
    2668:	9b 84       	ldd	r9, Y+11	; 0x0b
    266a:	aa 84       	ldd	r10, Y+10	; 0x0a
    266c:	b9 84       	ldd	r11, Y+9	; 0x09
    266e:	c8 84       	ldd	r12, Y+8	; 0x08
    2670:	df 80       	ldd	r13, Y+7	; 0x07
    2672:	ee 80       	ldd	r14, Y+6	; 0x06
    2674:	fd 80       	ldd	r15, Y+5	; 0x05
    2676:	0c 81       	ldd	r16, Y+4	; 0x04
    2678:	1b 81       	ldd	r17, Y+3	; 0x03
    267a:	aa 81       	ldd	r26, Y+2	; 0x02
    267c:	b9 81       	ldd	r27, Y+1	; 0x01
    267e:	ce 0f       	add	r28, r30
    2680:	d1 1d       	adc	r29, r1
    2682:	0f b6       	in	r0, 0x3f	; 63
    2684:	f8 94       	cli
    2686:	de bf       	out	0x3e, r29	; 62
    2688:	0f be       	out	0x3f, r0	; 63
    268a:	cd bf       	out	0x3d, r28	; 61
    268c:	ed 01       	movw	r28, r26
    268e:	08 95       	ret

00002690 <__udivmodhi4>:
    2690:	aa 1b       	sub	r26, r26
    2692:	bb 1b       	sub	r27, r27
    2694:	51 e1       	ldi	r21, 0x11	; 17
    2696:	07 c0       	rjmp	.+14     	; 0x26a6 <__udivmodhi4_ep>

00002698 <__udivmodhi4_loop>:
    2698:	aa 1f       	adc	r26, r26
    269a:	bb 1f       	adc	r27, r27
    269c:	a6 17       	cp	r26, r22
    269e:	b7 07       	cpc	r27, r23
    26a0:	10 f0       	brcs	.+4      	; 0x26a6 <__udivmodhi4_ep>
    26a2:	a6 1b       	sub	r26, r22
    26a4:	b7 0b       	sbc	r27, r23

000026a6 <__udivmodhi4_ep>:
    26a6:	88 1f       	adc	r24, r24
    26a8:	99 1f       	adc	r25, r25
    26aa:	5a 95       	dec	r21
    26ac:	a9 f7       	brne	.-22     	; 0x2698 <__udivmodhi4_loop>
    26ae:	80 95       	com	r24
    26b0:	90 95       	com	r25
    26b2:	bc 01       	movw	r22, r24
    26b4:	cd 01       	movw	r24, r26
    26b6:	08 95       	ret

000026b8 <__ftoa_engine>:
    26b8:	28 30       	cpi	r18, 0x08	; 8
    26ba:	08 f0       	brcs	.+2      	; 0x26be <__ftoa_engine+0x6>
    26bc:	27 e0       	ldi	r18, 0x07	; 7
    26be:	33 27       	eor	r19, r19
    26c0:	da 01       	movw	r26, r20
    26c2:	99 0f       	add	r25, r25
    26c4:	31 1d       	adc	r19, r1
    26c6:	87 fd       	sbrc	r24, 7
    26c8:	91 60       	ori	r25, 0x01	; 1
    26ca:	00 96       	adiw	r24, 0x00	; 0
    26cc:	61 05       	cpc	r22, r1
    26ce:	71 05       	cpc	r23, r1
    26d0:	39 f4       	brne	.+14     	; 0x26e0 <__ftoa_engine+0x28>
    26d2:	32 60       	ori	r19, 0x02	; 2
    26d4:	2e 5f       	subi	r18, 0xFE	; 254
    26d6:	3d 93       	st	X+, r19
    26d8:	30 e3       	ldi	r19, 0x30	; 48
    26da:	2a 95       	dec	r18
    26dc:	e1 f7       	brne	.-8      	; 0x26d6 <__ftoa_engine+0x1e>
    26de:	08 95       	ret
    26e0:	9f 3f       	cpi	r25, 0xFF	; 255
    26e2:	30 f0       	brcs	.+12     	; 0x26f0 <__ftoa_engine+0x38>
    26e4:	80 38       	cpi	r24, 0x80	; 128
    26e6:	71 05       	cpc	r23, r1
    26e8:	61 05       	cpc	r22, r1
    26ea:	09 f0       	breq	.+2      	; 0x26ee <__ftoa_engine+0x36>
    26ec:	3c 5f       	subi	r19, 0xFC	; 252
    26ee:	3c 5f       	subi	r19, 0xFC	; 252
    26f0:	3d 93       	st	X+, r19
    26f2:	91 30       	cpi	r25, 0x01	; 1
    26f4:	08 f0       	brcs	.+2      	; 0x26f8 <__ftoa_engine+0x40>
    26f6:	80 68       	ori	r24, 0x80	; 128
    26f8:	91 1d       	adc	r25, r1
    26fa:	df 93       	push	r29
    26fc:	cf 93       	push	r28
    26fe:	1f 93       	push	r17
    2700:	0f 93       	push	r16
    2702:	ff 92       	push	r15
    2704:	ef 92       	push	r14
    2706:	19 2f       	mov	r17, r25
    2708:	98 7f       	andi	r25, 0xF8	; 248
    270a:	96 95       	lsr	r25
    270c:	e9 2f       	mov	r30, r25
    270e:	96 95       	lsr	r25
    2710:	96 95       	lsr	r25
    2712:	e9 0f       	add	r30, r25
    2714:	ff 27       	eor	r31, r31
    2716:	e3 57       	subi	r30, 0x73	; 115
    2718:	fe 4f       	sbci	r31, 0xFE	; 254
    271a:	99 27       	eor	r25, r25
    271c:	33 27       	eor	r19, r19
    271e:	ee 24       	eor	r14, r14
    2720:	ff 24       	eor	r15, r15
    2722:	a7 01       	movw	r20, r14
    2724:	e7 01       	movw	r28, r14
    2726:	05 90       	lpm	r0, Z+
    2728:	08 94       	sec
    272a:	07 94       	ror	r0
    272c:	28 f4       	brcc	.+10     	; 0x2738 <__ftoa_engine+0x80>
    272e:	36 0f       	add	r19, r22
    2730:	e7 1e       	adc	r14, r23
    2732:	f8 1e       	adc	r15, r24
    2734:	49 1f       	adc	r20, r25
    2736:	51 1d       	adc	r21, r1
    2738:	66 0f       	add	r22, r22
    273a:	77 1f       	adc	r23, r23
    273c:	88 1f       	adc	r24, r24
    273e:	99 1f       	adc	r25, r25
    2740:	06 94       	lsr	r0
    2742:	a1 f7       	brne	.-24     	; 0x272c <__ftoa_engine+0x74>
    2744:	05 90       	lpm	r0, Z+
    2746:	07 94       	ror	r0
    2748:	28 f4       	brcc	.+10     	; 0x2754 <__ftoa_engine+0x9c>
    274a:	e7 0e       	add	r14, r23
    274c:	f8 1e       	adc	r15, r24
    274e:	49 1f       	adc	r20, r25
    2750:	56 1f       	adc	r21, r22
    2752:	c1 1d       	adc	r28, r1
    2754:	77 0f       	add	r23, r23
    2756:	88 1f       	adc	r24, r24
    2758:	99 1f       	adc	r25, r25
    275a:	66 1f       	adc	r22, r22
    275c:	06 94       	lsr	r0
    275e:	a1 f7       	brne	.-24     	; 0x2748 <__ftoa_engine+0x90>
    2760:	05 90       	lpm	r0, Z+
    2762:	07 94       	ror	r0
    2764:	28 f4       	brcc	.+10     	; 0x2770 <__ftoa_engine+0xb8>
    2766:	f8 0e       	add	r15, r24
    2768:	49 1f       	adc	r20, r25
    276a:	56 1f       	adc	r21, r22
    276c:	c7 1f       	adc	r28, r23
    276e:	d1 1d       	adc	r29, r1
    2770:	88 0f       	add	r24, r24
    2772:	99 1f       	adc	r25, r25
    2774:	66 1f       	adc	r22, r22
    2776:	77 1f       	adc	r23, r23
    2778:	06 94       	lsr	r0
    277a:	a1 f7       	brne	.-24     	; 0x2764 <__ftoa_engine+0xac>
    277c:	05 90       	lpm	r0, Z+
    277e:	07 94       	ror	r0
    2780:	20 f4       	brcc	.+8      	; 0x278a <__ftoa_engine+0xd2>
    2782:	49 0f       	add	r20, r25
    2784:	56 1f       	adc	r21, r22
    2786:	c7 1f       	adc	r28, r23
    2788:	d8 1f       	adc	r29, r24
    278a:	99 0f       	add	r25, r25
    278c:	66 1f       	adc	r22, r22
    278e:	77 1f       	adc	r23, r23
    2790:	88 1f       	adc	r24, r24
    2792:	06 94       	lsr	r0
    2794:	a9 f7       	brne	.-22     	; 0x2780 <__ftoa_engine+0xc8>
    2796:	84 91       	lpm	r24, Z+
    2798:	10 95       	com	r17
    279a:	17 70       	andi	r17, 0x07	; 7
    279c:	41 f0       	breq	.+16     	; 0x27ae <__ftoa_engine+0xf6>
    279e:	d6 95       	lsr	r29
    27a0:	c7 95       	ror	r28
    27a2:	57 95       	ror	r21
    27a4:	47 95       	ror	r20
    27a6:	f7 94       	ror	r15
    27a8:	e7 94       	ror	r14
    27aa:	1a 95       	dec	r17
    27ac:	c1 f7       	brne	.-16     	; 0x279e <__ftoa_engine+0xe6>
    27ae:	e3 e3       	ldi	r30, 0x33	; 51
    27b0:	f1 e0       	ldi	r31, 0x01	; 1
    27b2:	68 94       	set
    27b4:	15 90       	lpm	r1, Z+
    27b6:	15 91       	lpm	r17, Z+
    27b8:	35 91       	lpm	r19, Z+
    27ba:	65 91       	lpm	r22, Z+
    27bc:	95 91       	lpm	r25, Z+
    27be:	05 90       	lpm	r0, Z+
    27c0:	7f e2       	ldi	r23, 0x2F	; 47
    27c2:	73 95       	inc	r23
    27c4:	e1 18       	sub	r14, r1
    27c6:	f1 0a       	sbc	r15, r17
    27c8:	43 0b       	sbc	r20, r19
    27ca:	56 0b       	sbc	r21, r22
    27cc:	c9 0b       	sbc	r28, r25
    27ce:	d0 09       	sbc	r29, r0
    27d0:	c0 f7       	brcc	.-16     	; 0x27c2 <__ftoa_engine+0x10a>
    27d2:	e1 0c       	add	r14, r1
    27d4:	f1 1e       	adc	r15, r17
    27d6:	43 1f       	adc	r20, r19
    27d8:	56 1f       	adc	r21, r22
    27da:	c9 1f       	adc	r28, r25
    27dc:	d0 1d       	adc	r29, r0
    27de:	7e f4       	brtc	.+30     	; 0x27fe <__ftoa_engine+0x146>
    27e0:	70 33       	cpi	r23, 0x30	; 48
    27e2:	11 f4       	brne	.+4      	; 0x27e8 <__ftoa_engine+0x130>
    27e4:	8a 95       	dec	r24
    27e6:	e6 cf       	rjmp	.-52     	; 0x27b4 <__ftoa_engine+0xfc>
    27e8:	e8 94       	clt
    27ea:	01 50       	subi	r16, 0x01	; 1
    27ec:	30 f0       	brcs	.+12     	; 0x27fa <__ftoa_engine+0x142>
    27ee:	08 0f       	add	r16, r24
    27f0:	0a f4       	brpl	.+2      	; 0x27f4 <__ftoa_engine+0x13c>
    27f2:	00 27       	eor	r16, r16
    27f4:	02 17       	cp	r16, r18
    27f6:	08 f4       	brcc	.+2      	; 0x27fa <__ftoa_engine+0x142>
    27f8:	20 2f       	mov	r18, r16
    27fa:	23 95       	inc	r18
    27fc:	02 2f       	mov	r16, r18
    27fe:	7a 33       	cpi	r23, 0x3A	; 58
    2800:	28 f0       	brcs	.+10     	; 0x280c <__ftoa_engine+0x154>
    2802:	79 e3       	ldi	r23, 0x39	; 57
    2804:	7d 93       	st	X+, r23
    2806:	2a 95       	dec	r18
    2808:	e9 f7       	brne	.-6      	; 0x2804 <__ftoa_engine+0x14c>
    280a:	10 c0       	rjmp	.+32     	; 0x282c <__ftoa_engine+0x174>
    280c:	7d 93       	st	X+, r23
    280e:	2a 95       	dec	r18
    2810:	89 f6       	brne	.-94     	; 0x27b4 <__ftoa_engine+0xfc>
    2812:	06 94       	lsr	r0
    2814:	97 95       	ror	r25
    2816:	67 95       	ror	r22
    2818:	37 95       	ror	r19
    281a:	17 95       	ror	r17
    281c:	17 94       	ror	r1
    281e:	e1 18       	sub	r14, r1
    2820:	f1 0a       	sbc	r15, r17
    2822:	43 0b       	sbc	r20, r19
    2824:	56 0b       	sbc	r21, r22
    2826:	c9 0b       	sbc	r28, r25
    2828:	d0 09       	sbc	r29, r0
    282a:	98 f0       	brcs	.+38     	; 0x2852 <__ftoa_engine+0x19a>
    282c:	23 95       	inc	r18
    282e:	7e 91       	ld	r23, -X
    2830:	73 95       	inc	r23
    2832:	7a 33       	cpi	r23, 0x3A	; 58
    2834:	08 f0       	brcs	.+2      	; 0x2838 <__ftoa_engine+0x180>
    2836:	70 e3       	ldi	r23, 0x30	; 48
    2838:	7c 93       	st	X, r23
    283a:	20 13       	cpse	r18, r16
    283c:	b8 f7       	brcc	.-18     	; 0x282c <__ftoa_engine+0x174>
    283e:	7e 91       	ld	r23, -X
    2840:	70 61       	ori	r23, 0x10	; 16
    2842:	7d 93       	st	X+, r23
    2844:	30 f0       	brcs	.+12     	; 0x2852 <__ftoa_engine+0x19a>
    2846:	83 95       	inc	r24
    2848:	71 e3       	ldi	r23, 0x31	; 49
    284a:	7d 93       	st	X+, r23
    284c:	70 e3       	ldi	r23, 0x30	; 48
    284e:	2a 95       	dec	r18
    2850:	e1 f7       	brne	.-8      	; 0x284a <__ftoa_engine+0x192>
    2852:	11 24       	eor	r1, r1
    2854:	ef 90       	pop	r14
    2856:	ff 90       	pop	r15
    2858:	0f 91       	pop	r16
    285a:	1f 91       	pop	r17
    285c:	cf 91       	pop	r28
    285e:	df 91       	pop	r29
    2860:	99 27       	eor	r25, r25
    2862:	87 fd       	sbrc	r24, 7
    2864:	90 95       	com	r25
    2866:	08 95       	ret

00002868 <strnlen_P>:
    2868:	fc 01       	movw	r30, r24
    286a:	05 90       	lpm	r0, Z+
    286c:	61 50       	subi	r22, 0x01	; 1
    286e:	70 40       	sbci	r23, 0x00	; 0
    2870:	01 10       	cpse	r0, r1
    2872:	d8 f7       	brcc	.-10     	; 0x286a <strnlen_P+0x2>
    2874:	80 95       	com	r24
    2876:	90 95       	com	r25
    2878:	8e 0f       	add	r24, r30
    287a:	9f 1f       	adc	r25, r31
    287c:	08 95       	ret

0000287e <strnlen>:
    287e:	fc 01       	movw	r30, r24
    2880:	61 50       	subi	r22, 0x01	; 1
    2882:	70 40       	sbci	r23, 0x00	; 0
    2884:	01 90       	ld	r0, Z+
    2886:	01 10       	cpse	r0, r1
    2888:	d8 f7       	brcc	.-10     	; 0x2880 <strnlen+0x2>
    288a:	80 95       	com	r24
    288c:	90 95       	com	r25
    288e:	8e 0f       	add	r24, r30
    2890:	9f 1f       	adc	r25, r31
    2892:	08 95       	ret

00002894 <fputc>:
    2894:	0f 93       	push	r16
    2896:	1f 93       	push	r17
    2898:	cf 93       	push	r28
    289a:	df 93       	push	r29
    289c:	8c 01       	movw	r16, r24
    289e:	eb 01       	movw	r28, r22
    28a0:	8b 81       	ldd	r24, Y+3	; 0x03
    28a2:	81 ff       	sbrs	r24, 1
    28a4:	1b c0       	rjmp	.+54     	; 0x28dc <fputc+0x48>
    28a6:	82 ff       	sbrs	r24, 2
    28a8:	0d c0       	rjmp	.+26     	; 0x28c4 <fputc+0x30>
    28aa:	2e 81       	ldd	r18, Y+6	; 0x06
    28ac:	3f 81       	ldd	r19, Y+7	; 0x07
    28ae:	8c 81       	ldd	r24, Y+4	; 0x04
    28b0:	9d 81       	ldd	r25, Y+5	; 0x05
    28b2:	28 17       	cp	r18, r24
    28b4:	39 07       	cpc	r19, r25
    28b6:	64 f4       	brge	.+24     	; 0x28d0 <fputc+0x3c>
    28b8:	e8 81       	ld	r30, Y
    28ba:	f9 81       	ldd	r31, Y+1	; 0x01
    28bc:	01 93       	st	Z+, r16
    28be:	f9 83       	std	Y+1, r31	; 0x01
    28c0:	e8 83       	st	Y, r30
    28c2:	06 c0       	rjmp	.+12     	; 0x28d0 <fputc+0x3c>
    28c4:	e8 85       	ldd	r30, Y+8	; 0x08
    28c6:	f9 85       	ldd	r31, Y+9	; 0x09
    28c8:	80 2f       	mov	r24, r16
    28ca:	09 95       	icall
    28cc:	89 2b       	or	r24, r25
    28ce:	31 f4       	brne	.+12     	; 0x28dc <fputc+0x48>
    28d0:	8e 81       	ldd	r24, Y+6	; 0x06
    28d2:	9f 81       	ldd	r25, Y+7	; 0x07
    28d4:	01 96       	adiw	r24, 0x01	; 1
    28d6:	9f 83       	std	Y+7, r25	; 0x07
    28d8:	8e 83       	std	Y+6, r24	; 0x06
    28da:	02 c0       	rjmp	.+4      	; 0x28e0 <fputc+0x4c>
    28dc:	0f ef       	ldi	r16, 0xFF	; 255
    28de:	1f ef       	ldi	r17, 0xFF	; 255
    28e0:	c8 01       	movw	r24, r16
    28e2:	df 91       	pop	r29
    28e4:	cf 91       	pop	r28
    28e6:	1f 91       	pop	r17
    28e8:	0f 91       	pop	r16
    28ea:	08 95       	ret

000028ec <printf>:
    28ec:	a0 e0       	ldi	r26, 0x00	; 0
    28ee:	b0 e0       	ldi	r27, 0x00	; 0
    28f0:	ec e7       	ldi	r30, 0x7C	; 124
    28f2:	f4 e1       	ldi	r31, 0x14	; 20
    28f4:	0c 94 21 13 	jmp	0x2642	; 0x2642 <__prologue_saves__+0x20>
    28f8:	fe 01       	movw	r30, r28
    28fa:	35 96       	adiw	r30, 0x05	; 5
    28fc:	61 91       	ld	r22, Z+
    28fe:	71 91       	ld	r23, Z+
    2900:	80 91 6b 02 	lds	r24, 0x026B
    2904:	90 91 6c 02 	lds	r25, 0x026C
    2908:	af 01       	movw	r20, r30
    290a:	0e 94 36 01 	call	0x26c	; 0x26c <vfprintf>
    290e:	20 96       	adiw	r28, 0x00	; 0
    2910:	e2 e0       	ldi	r30, 0x02	; 2
    2912:	0c 94 3d 13 	jmp	0x267a	; 0x267a <__epilogue_restores__+0x20>

00002916 <sprintf>:
    2916:	ae e0       	ldi	r26, 0x0E	; 14
    2918:	b0 e0       	ldi	r27, 0x00	; 0
    291a:	e1 e9       	ldi	r30, 0x91	; 145
    291c:	f4 e1       	ldi	r31, 0x14	; 20
    291e:	0c 94 1f 13 	jmp	0x263e	; 0x263e <__prologue_saves__+0x1c>
    2922:	0d 89       	ldd	r16, Y+21	; 0x15
    2924:	1e 89       	ldd	r17, Y+22	; 0x16
    2926:	86 e0       	ldi	r24, 0x06	; 6
    2928:	8c 83       	std	Y+4, r24	; 0x04
    292a:	1a 83       	std	Y+2, r17	; 0x02
    292c:	09 83       	std	Y+1, r16	; 0x01
    292e:	8f ef       	ldi	r24, 0xFF	; 255
    2930:	9f e7       	ldi	r25, 0x7F	; 127
    2932:	9e 83       	std	Y+6, r25	; 0x06
    2934:	8d 83       	std	Y+5, r24	; 0x05
    2936:	9e 01       	movw	r18, r28
    2938:	27 5e       	subi	r18, 0xE7	; 231
    293a:	3f 4f       	sbci	r19, 0xFF	; 255
    293c:	ce 01       	movw	r24, r28
    293e:	01 96       	adiw	r24, 0x01	; 1
    2940:	6f 89       	ldd	r22, Y+23	; 0x17
    2942:	78 8d       	ldd	r23, Y+24	; 0x18
    2944:	a9 01       	movw	r20, r18
    2946:	0e 94 36 01 	call	0x26c	; 0x26c <vfprintf>
    294a:	2f 81       	ldd	r18, Y+7	; 0x07
    294c:	38 85       	ldd	r19, Y+8	; 0x08
    294e:	02 0f       	add	r16, r18
    2950:	13 1f       	adc	r17, r19
    2952:	f8 01       	movw	r30, r16
    2954:	10 82       	st	Z, r1
    2956:	2e 96       	adiw	r28, 0x0e	; 14
    2958:	e4 e0       	ldi	r30, 0x04	; 4
    295a:	0c 94 3b 13 	jmp	0x2676	; 0x2676 <__epilogue_restores__+0x1c>

0000295e <__ultoa_invert>:
    295e:	fa 01       	movw	r30, r20
    2960:	aa 27       	eor	r26, r26
    2962:	28 30       	cpi	r18, 0x08	; 8
    2964:	51 f1       	breq	.+84     	; 0x29ba <__ultoa_invert+0x5c>
    2966:	20 31       	cpi	r18, 0x10	; 16
    2968:	81 f1       	breq	.+96     	; 0x29ca <__ultoa_invert+0x6c>
    296a:	e8 94       	clt
    296c:	6f 93       	push	r22
    296e:	6e 7f       	andi	r22, 0xFE	; 254
    2970:	6e 5f       	subi	r22, 0xFE	; 254
    2972:	7f 4f       	sbci	r23, 0xFF	; 255
    2974:	8f 4f       	sbci	r24, 0xFF	; 255
    2976:	9f 4f       	sbci	r25, 0xFF	; 255
    2978:	af 4f       	sbci	r26, 0xFF	; 255
    297a:	b1 e0       	ldi	r27, 0x01	; 1
    297c:	3e d0       	rcall	.+124    	; 0x29fa <__ultoa_invert+0x9c>
    297e:	b4 e0       	ldi	r27, 0x04	; 4
    2980:	3c d0       	rcall	.+120    	; 0x29fa <__ultoa_invert+0x9c>
    2982:	67 0f       	add	r22, r23
    2984:	78 1f       	adc	r23, r24
    2986:	89 1f       	adc	r24, r25
    2988:	9a 1f       	adc	r25, r26
    298a:	a1 1d       	adc	r26, r1
    298c:	68 0f       	add	r22, r24
    298e:	79 1f       	adc	r23, r25
    2990:	8a 1f       	adc	r24, r26
    2992:	91 1d       	adc	r25, r1
    2994:	a1 1d       	adc	r26, r1
    2996:	6a 0f       	add	r22, r26
    2998:	71 1d       	adc	r23, r1
    299a:	81 1d       	adc	r24, r1
    299c:	91 1d       	adc	r25, r1
    299e:	a1 1d       	adc	r26, r1
    29a0:	20 d0       	rcall	.+64     	; 0x29e2 <__ultoa_invert+0x84>
    29a2:	09 f4       	brne	.+2      	; 0x29a6 <__ultoa_invert+0x48>
    29a4:	68 94       	set
    29a6:	3f 91       	pop	r19
    29a8:	2a e0       	ldi	r18, 0x0A	; 10
    29aa:	26 9f       	mul	r18, r22
    29ac:	11 24       	eor	r1, r1
    29ae:	30 19       	sub	r19, r0
    29b0:	30 5d       	subi	r19, 0xD0	; 208
    29b2:	31 93       	st	Z+, r19
    29b4:	de f6       	brtc	.-74     	; 0x296c <__ultoa_invert+0xe>
    29b6:	cf 01       	movw	r24, r30
    29b8:	08 95       	ret
    29ba:	46 2f       	mov	r20, r22
    29bc:	47 70       	andi	r20, 0x07	; 7
    29be:	40 5d       	subi	r20, 0xD0	; 208
    29c0:	41 93       	st	Z+, r20
    29c2:	b3 e0       	ldi	r27, 0x03	; 3
    29c4:	0f d0       	rcall	.+30     	; 0x29e4 <__ultoa_invert+0x86>
    29c6:	c9 f7       	brne	.-14     	; 0x29ba <__ultoa_invert+0x5c>
    29c8:	f6 cf       	rjmp	.-20     	; 0x29b6 <__ultoa_invert+0x58>
    29ca:	46 2f       	mov	r20, r22
    29cc:	4f 70       	andi	r20, 0x0F	; 15
    29ce:	40 5d       	subi	r20, 0xD0	; 208
    29d0:	4a 33       	cpi	r20, 0x3A	; 58
    29d2:	18 f0       	brcs	.+6      	; 0x29da <__ultoa_invert+0x7c>
    29d4:	49 5d       	subi	r20, 0xD9	; 217
    29d6:	31 fd       	sbrc	r19, 1
    29d8:	40 52       	subi	r20, 0x20	; 32
    29da:	41 93       	st	Z+, r20
    29dc:	02 d0       	rcall	.+4      	; 0x29e2 <__ultoa_invert+0x84>
    29de:	a9 f7       	brne	.-22     	; 0x29ca <__ultoa_invert+0x6c>
    29e0:	ea cf       	rjmp	.-44     	; 0x29b6 <__ultoa_invert+0x58>
    29e2:	b4 e0       	ldi	r27, 0x04	; 4
    29e4:	a6 95       	lsr	r26
    29e6:	97 95       	ror	r25
    29e8:	87 95       	ror	r24
    29ea:	77 95       	ror	r23
    29ec:	67 95       	ror	r22
    29ee:	ba 95       	dec	r27
    29f0:	c9 f7       	brne	.-14     	; 0x29e4 <__ultoa_invert+0x86>
    29f2:	00 97       	sbiw	r24, 0x00	; 0
    29f4:	61 05       	cpc	r22, r1
    29f6:	71 05       	cpc	r23, r1
    29f8:	08 95       	ret
    29fa:	9b 01       	movw	r18, r22
    29fc:	ac 01       	movw	r20, r24
    29fe:	0a 2e       	mov	r0, r26
    2a00:	06 94       	lsr	r0
    2a02:	57 95       	ror	r21
    2a04:	47 95       	ror	r20
    2a06:	37 95       	ror	r19
    2a08:	27 95       	ror	r18
    2a0a:	ba 95       	dec	r27
    2a0c:	c9 f7       	brne	.-14     	; 0x2a00 <__ultoa_invert+0xa2>
    2a0e:	62 0f       	add	r22, r18
    2a10:	73 1f       	adc	r23, r19
    2a12:	84 1f       	adc	r24, r20
    2a14:	95 1f       	adc	r25, r21
    2a16:	a0 1d       	adc	r26, r0
    2a18:	08 95       	ret

00002a1a <_exit>:
    2a1a:	f8 94       	cli

00002a1c <__stop_program>:
    2a1c:	ff cf       	rjmp	.-2      	; 0x2a1c <__stop_program>
